
/home/binhkieudo/Workspace/tmp/HCMUSTProject/framework/src/main/resources/bootROM/MTBoot//build/sdboot.elf:     file format elf64-littleriscv


Disassembly of section .text:

0000000040002000 <_prog_start>:

  .section .text.init
  .option norvc
  .globl _prog_start
_prog_start:
  li s2, 0x8
    40002000:	00800913          	li	s2,8
  csrw mie, s2
    40002004:	30491073          	csrw	mie,s2
  csrr a0, mhartid
    40002008:	f1402573          	csrr	a0,mhartid
  li sp, (MEMORY_MEM_ADDR + 0xFF0)
    4000200c:	00080137          	lui	sp,0x80
    40002010:	0011011b          	addiw	sp,sp,1 # 80001 <_prog_start-0x3ff81fff>
    40002014:	00c11113          	slli	sp,sp,0xc
    40002018:	ff010113          	addi	sp,sp,-16
  call main
    4000201c:	0de000ef          	jal	ra,400020fa <main>
  la a1, dtb // dtb address for next level bootloader
    40002020:	00000597          	auipc	a1,0x0
    40002024:	74858593          	addi	a1,a1,1864 # 40002768 <dtb>
  li s1, MEMORY_MEM_ADDR
    40002028:	0010049b          	addiw	s1,zero,1
    4000202c:	01f49493          	slli	s1,s1,0x1f
  jr s1
    40002030:	00048067          	jr	s1
  j _prog_start
    40002034:	fcdff06f          	j	40002000 <_prog_start>

0000000040002038 <sd_cmd>:
{
	return spi_xfer(0xFF);
}

static uint8_t sd_cmd(uint8_t cmd, uint32_t arg, uint8_t crc)
{
    40002038:	1141                	addi	sp,sp,-16
    4000203a:	e406                	sd	ra,8(sp)
    4000203c:	e022                	sd	s0,0(sp)
	unsigned long n;
	uint8_t r;

	REG32(spi, SPI_REG_CSMODE) = SPI_CSMODE_HOLD;
    4000203e:	640027b7          	lui	a5,0x64002
    40002042:	4709                	li	a4,2
    40002044:	cf98                	sw	a4,24(a5)
	REG32(spi, SPI_REG_TXFIFO) = d;
    40002046:	0ff00713          	li	a4,255
    4000204a:	c7b8                	sw	a4,72(a5)
		r = REG32(spi, SPI_REG_RXFIFO);
    4000204c:	64002737          	lui	a4,0x64002
    40002050:	477c                	lw	a5,76(a4)
	} while (r < 0);
    40002052:	fe07cfe3          	bltz	a5,40002050 <sd_cmd+0x18>
	REG32(spi, SPI_REG_TXFIFO) = d;
    40002056:	2501                	sext.w	a0,a0
    40002058:	c728                	sw	a0,72(a4)
		r = REG32(spi, SPI_REG_RXFIFO);
    4000205a:	64002737          	lui	a4,0x64002
    4000205e:	477c                	lw	a5,76(a4)
	} while (r < 0);
    40002060:	fe07cfe3          	bltz	a5,4000205e <sd_cmd+0x26>
	sd_dummy();
	spi_xfer(cmd);
	spi_xfer(arg >> 24);
    40002064:	0185d79b          	srliw	a5,a1,0x18
	REG32(spi, SPI_REG_TXFIFO) = d;
    40002068:	c73c                	sw	a5,72(a4)
		r = REG32(spi, SPI_REG_RXFIFO);
    4000206a:	64002737          	lui	a4,0x64002
    4000206e:	477c                	lw	a5,76(a4)
	} while (r < 0);
    40002070:	fe07cfe3          	bltz	a5,4000206e <sd_cmd+0x36>
	REG32(spi, SPI_REG_TXFIFO) = d;
    40002074:	04072423          	sw	zero,72(a4) # 64002048 <dtb+0x23fff8e0>
		r = REG32(spi, SPI_REG_RXFIFO);
    40002078:	64002737          	lui	a4,0x64002
    4000207c:	477c                	lw	a5,76(a4)
	} while (r < 0);
    4000207e:	fe07cfe3          	bltz	a5,4000207c <sd_cmd+0x44>
	spi_xfer(arg >> 16);
	spi_xfer(arg >> 8);
    40002082:	0085d79b          	srliw	a5,a1,0x8
    40002086:	0ff7f793          	zext.b	a5,a5
	REG32(spi, SPI_REG_TXFIFO) = d;
    4000208a:	c73c                	sw	a5,72(a4)
		r = REG32(spi, SPI_REG_RXFIFO);
    4000208c:	64002737          	lui	a4,0x64002
    40002090:	477c                	lw	a5,76(a4)
	} while (r < 0);
    40002092:	fe07cfe3          	bltz	a5,40002090 <sd_cmd+0x58>
	REG32(spi, SPI_REG_TXFIFO) = d;
    40002096:	0ff5f593          	zext.b	a1,a1
    4000209a:	c72c                	sw	a1,72(a4)
		r = REG32(spi, SPI_REG_RXFIFO);
    4000209c:	64002737          	lui	a4,0x64002
    400020a0:	477c                	lw	a5,76(a4)
	} while (r < 0);
    400020a2:	fe07cfe3          	bltz	a5,400020a0 <sd_cmd+0x68>
	REG32(spi, SPI_REG_TXFIFO) = d;
    400020a6:	0006079b          	sext.w	a5,a2
    400020aa:	c73c                	sw	a5,72(a4)
		r = REG32(spi, SPI_REG_RXFIFO);
    400020ac:	64002737          	lui	a4,0x64002
    400020b0:	477c                	lw	a5,76(a4)
	} while (r < 0);
    400020b2:	fe07cfe3          	bltz	a5,400020b0 <sd_cmd+0x78>
	REG32(spi, SPI_REG_TXFIFO) = d;
    400020b6:	64002737          	lui	a4,0x64002
    400020ba:	3e800693          	li	a3,1000
    400020be:	04870593          	addi	a1,a4,72 # 64002048 <dtb+0x23fff8e0>
    400020c2:	0ff00613          	li	a2,255
    400020c6:	c190                	sw	a2,0(a1)
		r = REG32(spi, SPI_REG_RXFIFO);
    400020c8:	477c                	lw	a5,76(a4)
    400020ca:	0007841b          	sext.w	s0,a5
	} while (r < 0);
    400020ce:	fe07cde3          	bltz	a5,400020c8 <sd_cmd+0x90>
	spi_xfer(crc);

	n = 1000;
	do {
		r = sd_dummy();
		if (!(r & 0x80)) {
    400020d2:	0184179b          	slliw	a5,s0,0x18
    400020d6:	4187d79b          	sraiw	a5,a5,0x18
    400020da:	0007da63          	bgez	a5,400020ee <sd_cmd+0xb6>
//			dprintf("sd:cmd: %hx\r\n", r);
			goto done;
		}
	} while (--n > 0);
    400020de:	16fd                	addi	a3,a3,-1
    400020e0:	f2fd                	bnez	a3,400020c6 <sd_cmd+0x8e>
	kputs("sd_cmd: timeout");
    400020e2:	00000517          	auipc	a0,0x0
    400020e6:	58e50513          	addi	a0,a0,1422 # 40002670 <kprintf+0x15a>
    400020ea:	3ee000ef          	jal	ra,400024d8 <kputs>
done:
	return r;
}
    400020ee:	60a2                	ld	ra,8(sp)
    400020f0:	0ff47513          	zext.b	a0,s0
    400020f4:	6402                	ld	s0,0(sp)
    400020f6:	0141                	addi	sp,sp,16
    400020f8:	8082                	ret

00000000400020fa <main>:
	kputs("\b ");
	return rc;
}

int main(int argc, char** dump)
{
    400020fa:	7179                	addi	sp,sp,-48
    400020fc:	f406                	sd	ra,40(sp)
    400020fe:	f022                	sd	s0,32(sp)
    40002100:	ec26                	sd	s1,24(sp)
    40002102:	e84a                	sd	s2,16(sp)
    40002104:	e44e                	sd	s3,8(sp)
	REG32(uart, UART_REG_TXCTRL) = UART_TXEN;
    40002106:	640007b7          	lui	a5,0x64000
    4000210a:	4705                	li	a4,1
    4000210c:	c798                	sw	a4,8(a5)

	int mhartid = read_csr(mhartid);
    4000210e:	f1402473          	csrr	s0,mhartid
    40002112:	2401                	sext.w	s0,s0

	if (mhartid == 0) {
    40002114:	c819                	beqz	s0,4000212a <main+0x30>
	 		return 1;
	 	}
	 	kputs("FINISH");
	 }

	__asm__ __volatile__ ("fence.i" : : : "memory");
    40002116:	0000100f          	fence.i

	return 0;
    4000211a:	4501                	li	a0,0
}
    4000211c:	70a2                	ld	ra,40(sp)
    4000211e:	7402                	ld	s0,32(sp)
    40002120:	64e2                	ld	s1,24(sp)
    40002122:	6942                	ld	s2,16(sp)
    40002124:	69a2                	ld	s3,8(sp)
    40002126:	6145                	addi	sp,sp,48
    40002128:	8082                	ret
		kputs("");
    4000212a:	00000517          	auipc	a0,0x0
    4000212e:	5c650513          	addi	a0,a0,1478 # 400026f0 <kprintf+0x1da>
    40002132:	3a6000ef          	jal	ra,400024d8 <kputs>
		kputs("Core 0: ZERO STAGE BOOT..");
    40002136:	00000517          	auipc	a0,0x0
    4000213a:	54a50513          	addi	a0,a0,1354 # 40002680 <kprintf+0x16a>
    4000213e:	39a000ef          	jal	ra,400024d8 <kputs>
	REG32(spi, SPI_REG_SCKDIV) = (F_CLK / FDIV);
    40002142:	640027b7          	lui	a5,0x64002
	REG32(spi, SPI_REG_CSMODE) = SPI_CSMODE_OFF;
    40002146:	470d                	li	a4,3
	REG32(spi, SPI_REG_SCKDIV) = (F_CLK / FDIV);
    40002148:	0007a023          	sw	zero,0(a5) # 64002000 <dtb+0x23fff898>
	REG32(spi, SPI_REG_TXFIFO) = d;
    4000214c:	640024b7          	lui	s1,0x64002
	REG32(spi, SPI_REG_CSMODE) = SPI_CSMODE_OFF;
    40002150:	cf98                	sw	a4,24(a5)
	REG32(spi, SPI_REG_TXFIFO) = d;
    40002152:	04848613          	addi	a2,s1,72 # 64002048 <dtb+0x23fff8e0>
	REG32(spi, SPI_REG_CSMODE) = SPI_CSMODE_OFF;
    40002156:	4729                	li	a4,10
	REG32(spi, SPI_REG_TXFIFO) = d;
    40002158:	0ff00693          	li	a3,255
    4000215c:	c214                	sw	a3,0(a2)
		r = REG32(spi, SPI_REG_RXFIFO);
    4000215e:	44fc                	lw	a5,76(s1)
	} while (r < 0);
    40002160:	fe07cfe3          	bltz	a5,4000215e <main+0x64>
	for (i = 10; i > 0; i--) {
    40002164:	177d                	addi	a4,a4,-1
    40002166:	fb7d                	bnez	a4,4000215c <main+0x62>
	dputs("CMD0");
    40002168:	00000517          	auipc	a0,0x0
    4000216c:	53850513          	addi	a0,a0,1336 # 400026a0 <kprintf+0x18a>
	REG32(spi, SPI_REG_CSMODE) = SPI_CSMODE_AUTO;
    40002170:	0004ac23          	sw	zero,24(s1)
	dputs("CMD0");
    40002174:	364000ef          	jal	ra,400024d8 <kputs>
	rc = (sd_cmd(0x40, 0, 0x95) != 0x01);
    40002178:	09500613          	li	a2,149
    4000217c:	4581                	li	a1,0
    4000217e:	04000513          	li	a0,64
    40002182:	eb7ff0ef          	jal	ra,40002038 <sd_cmd>
	REG32(spi, SPI_REG_TXFIFO) = d;
    40002186:	0ff00793          	li	a5,255
    4000218a:	c4bc                	sw	a5,72(s1)
		r = REG32(spi, SPI_REG_RXFIFO);
    4000218c:	640024b7          	lui	s1,0x64002
    40002190:	44fc                	lw	a5,76(s1)
	} while (r < 0);
    40002192:	fe07cfe3          	bltz	a5,40002190 <main+0x96>
	REG32(spi, SPI_REG_CSMODE) = SPI_CSMODE_AUTO;
    40002196:	0004ac23          	sw	zero,24(s1) # 64002018 <dtb+0x23fff8b0>
	 	if (sd_cmd0() ||
    4000219a:	4785                	li	a5,1
    4000219c:	0af51463          	bne	a0,a5,40002244 <main+0x14a>
	dputs("CMD8");
    400021a0:	00000517          	auipc	a0,0x0
    400021a4:	50850513          	addi	a0,a0,1288 # 400026a8 <kprintf+0x192>
    400021a8:	330000ef          	jal	ra,400024d8 <kputs>
	rc = (sd_cmd(0x48, 0x000001AA, 0x87) != 0x01);
    400021ac:	08700613          	li	a2,135
    400021b0:	1aa00593          	li	a1,426
    400021b4:	04800513          	li	a0,72
    400021b8:	e81ff0ef          	jal	ra,40002038 <sd_cmd>
    400021bc:	0005071b          	sext.w	a4,a0
    400021c0:	177d                	addi	a4,a4,-1
	REG32(spi, SPI_REG_TXFIFO) = d;
    400021c2:	0ff00793          	li	a5,255
	rc = (sd_cmd(0x48, 0x000001AA, 0x87) != 0x01);
    400021c6:	00e03633          	snez	a2,a4
	REG32(spi, SPI_REG_TXFIFO) = d;
    400021ca:	c4bc                	sw	a5,72(s1)
		r = REG32(spi, SPI_REG_RXFIFO);
    400021cc:	64002737          	lui	a4,0x64002
    400021d0:	477c                	lw	a5,76(a4)
	} while (r < 0);
    400021d2:	fe07cfe3          	bltz	a5,400021d0 <main+0xd6>
	REG32(spi, SPI_REG_TXFIFO) = d;
    400021d6:	0ff00793          	li	a5,255
    400021da:	c73c                	sw	a5,72(a4)
		r = REG32(spi, SPI_REG_RXFIFO);
    400021dc:	64002737          	lui	a4,0x64002
    400021e0:	477c                	lw	a5,76(a4)
	} while (r < 0);
    400021e2:	fe07cfe3          	bltz	a5,400021e0 <main+0xe6>
	REG32(spi, SPI_REG_TXFIFO) = d;
    400021e6:	0ff00793          	li	a5,255
    400021ea:	c73c                	sw	a5,72(a4)
		r = REG32(spi, SPI_REG_RXFIFO);
    400021ec:	640026b7          	lui	a3,0x64002
    400021f0:	46fc                	lw	a5,76(a3)
    400021f2:	0007871b          	sext.w	a4,a5
	} while (r < 0);
    400021f6:	fe07cde3          	bltz	a5,400021f0 <main+0xf6>
	rc |= ((sd_dummy() & 0xF) != 0x1); /* voltage */
    400021fa:	8b3d                	andi	a4,a4,15
    400021fc:	fff70793          	addi	a5,a4,-1 # 64001fff <dtb+0x23fff897>
    40002200:	00f03733          	snez	a4,a5
	REG32(spi, SPI_REG_TXFIFO) = d;
    40002204:	0ff00793          	li	a5,255
    40002208:	c6bc                	sw	a5,72(a3)
		r = REG32(spi, SPI_REG_RXFIFO);
    4000220a:	640025b7          	lui	a1,0x64002
    4000220e:	45fc                	lw	a5,76(a1)
    40002210:	0007869b          	sext.w	a3,a5
	} while (r < 0);
    40002214:	fe07cde3          	bltz	a5,4000220e <main+0x114>
	rc |= (sd_dummy() != 0xAA); /* check pattern */
    40002218:	0ff6f793          	zext.b	a5,a3
    4000221c:	f5678793          	addi	a5,a5,-170
    40002220:	00f037b3          	snez	a5,a5
    40002224:	8fd9                	or	a5,a5,a4
    40002226:	00f66733          	or	a4,a2,a5
	REG32(spi, SPI_REG_TXFIFO) = d;
    4000222a:	0ff00793          	li	a5,255
    4000222e:	0ff77713          	zext.b	a4,a4
    40002232:	c5bc                	sw	a5,72(a1)
		r = REG32(spi, SPI_REG_RXFIFO);
    40002234:	640026b7          	lui	a3,0x64002
    40002238:	46fc                	lw	a5,76(a3)
	} while (r < 0);
    4000223a:	fe07cfe3          	bltz	a5,40002238 <main+0x13e>
	REG32(spi, SPI_REG_CSMODE) = SPI_CSMODE_AUTO;
    4000223e:	0006ac23          	sw	zero,24(a3) # 64002018 <dtb+0x23fff8b0>
	 	if (sd_cmd0() ||
    40002242:	cb09                	beqz	a4,40002254 <main+0x15a>
	 		kputs("ERROR");
    40002244:	00000517          	auipc	a0,0x0
    40002248:	4bc50513          	addi	a0,a0,1212 # 40002700 <kprintf+0x1ea>
    4000224c:	28c000ef          	jal	ra,400024d8 <kputs>
	 		return 1;
    40002250:	4505                	li	a0,1
    40002252:	b5e9                	j	4000211c <main+0x22>
	dputs("ACMD41");
    40002254:	00000517          	auipc	a0,0x0
    40002258:	45c50513          	addi	a0,a0,1116 # 400026b0 <kprintf+0x19a>
    4000225c:	27c000ef          	jal	ra,400024d8 <kputs>
	REG32(spi, SPI_REG_TXFIFO) = d;
    40002260:	640024b7          	lui	s1,0x64002
    40002264:	0ff00993          	li	s3,255
	} while (r == 0x01);
    40002268:	4905                	li	s2,1
	sd_cmd(0x77, 0, 0x65);
    4000226a:	06500613          	li	a2,101
    4000226e:	4581                	li	a1,0
    40002270:	07700513          	li	a0,119
    40002274:	dc5ff0ef          	jal	ra,40002038 <sd_cmd>
	REG32(spi, SPI_REG_TXFIFO) = d;
    40002278:	0534a423          	sw	s3,72(s1) # 64002048 <dtb+0x23fff8e0>
		r = REG32(spi, SPI_REG_RXFIFO);
    4000227c:	44fc                	lw	a5,76(s1)
	} while (r < 0);
    4000227e:	fe07cfe3          	bltz	a5,4000227c <main+0x182>
	REG32(spi, SPI_REG_CSMODE) = SPI_CSMODE_AUTO;
    40002282:	0004ac23          	sw	zero,24(s1)
		r = sd_cmd(0x69, 0x40000000, 0x77); /* HCS = 1 */
    40002286:	07700613          	li	a2,119
    4000228a:	400005b7          	lui	a1,0x40000
    4000228e:	06900513          	li	a0,105
    40002292:	da7ff0ef          	jal	ra,40002038 <sd_cmd>
	} while (r == 0x01);
    40002296:	fd250ae3          	beq	a0,s2,4000226a <main+0x170>
	 		sd_cmd8() ||
    4000229a:	f54d                	bnez	a0,40002244 <main+0x14a>
	dputs("CMD58");
    4000229c:	00000517          	auipc	a0,0x0
    400022a0:	41c50513          	addi	a0,a0,1052 # 400026b8 <kprintf+0x1a2>
    400022a4:	234000ef          	jal	ra,400024d8 <kputs>
	rc = (sd_cmd(0x7A, 0, 0xFD) != 0x00);
    400022a8:	0fd00613          	li	a2,253
    400022ac:	4581                	li	a1,0
    400022ae:	07a00513          	li	a0,122
    400022b2:	d87ff0ef          	jal	ra,40002038 <sd_cmd>
	REG32(spi, SPI_REG_TXFIFO) = d;
    400022b6:	0ff00793          	li	a5,255
	rc = (sd_cmd(0x7A, 0, 0xFD) != 0x00);
    400022ba:	00a03633          	snez	a2,a0
	REG32(spi, SPI_REG_TXFIFO) = d;
    400022be:	c4bc                	sw	a5,72(s1)
		r = REG32(spi, SPI_REG_RXFIFO);
    400022c0:	640026b7          	lui	a3,0x64002
    400022c4:	46fc                	lw	a5,76(a3)
    400022c6:	0007871b          	sext.w	a4,a5
	} while (r < 0);
    400022ca:	fe07cde3          	bltz	a5,400022c4 <main+0x1ca>
	rc |= ((sd_dummy() & 0x80) != 0x80); /* Power up status */
    400022ce:	4077579b          	sraiw	a5,a4,0x7
    400022d2:	0017c793          	xori	a5,a5,1
    400022d6:	8b85                	andi	a5,a5,1
    400022d8:	8e5d                	or	a2,a2,a5
	REG32(spi, SPI_REG_TXFIFO) = d;
    400022da:	0ff00793          	li	a5,255
    400022de:	c6bc                	sw	a5,72(a3)
		r = REG32(spi, SPI_REG_RXFIFO);
    400022e0:	64002737          	lui	a4,0x64002
    400022e4:	477c                	lw	a5,76(a4)
	} while (r < 0);
    400022e6:	fe07cfe3          	bltz	a5,400022e4 <main+0x1ea>
	REG32(spi, SPI_REG_TXFIFO) = d;
    400022ea:	0ff00793          	li	a5,255
    400022ee:	c73c                	sw	a5,72(a4)
		r = REG32(spi, SPI_REG_RXFIFO);
    400022f0:	64002737          	lui	a4,0x64002
    400022f4:	477c                	lw	a5,76(a4)
	} while (r < 0);
    400022f6:	fe07cfe3          	bltz	a5,400022f4 <main+0x1fa>
	REG32(spi, SPI_REG_TXFIFO) = d;
    400022fa:	0ff00793          	li	a5,255
    400022fe:	c73c                	sw	a5,72(a4)
		r = REG32(spi, SPI_REG_RXFIFO);
    40002300:	64002737          	lui	a4,0x64002
    40002304:	477c                	lw	a5,76(a4)
	} while (r < 0);
    40002306:	fe07cfe3          	bltz	a5,40002304 <main+0x20a>
	REG32(spi, SPI_REG_TXFIFO) = d;
    4000230a:	0ff00793          	li	a5,255
    4000230e:	c73c                	sw	a5,72(a4)
		r = REG32(spi, SPI_REG_RXFIFO);
    40002310:	640024b7          	lui	s1,0x64002
    40002314:	44fc                	lw	a5,76(s1)
	} while (r < 0);
    40002316:	fe07cfe3          	bltz	a5,40002314 <main+0x21a>
	REG32(spi, SPI_REG_CSMODE) = SPI_CSMODE_AUTO;
    4000231a:	0004ac23          	sw	zero,24(s1) # 64002018 <dtb+0x23fff8b0>
	 		sd_acmd41() ||
    4000231e:	f21d                	bnez	a2,40002244 <main+0x14a>
	dputs("CMD16");
    40002320:	00000517          	auipc	a0,0x0
    40002324:	3a050513          	addi	a0,a0,928 # 400026c0 <kprintf+0x1aa>
    40002328:	1b0000ef          	jal	ra,400024d8 <kputs>
	rc = (sd_cmd(0x50, 0x200, 0x15) != 0x00);
    4000232c:	4655                	li	a2,21
    4000232e:	20000593          	li	a1,512
    40002332:	05000513          	li	a0,80
    40002336:	d03ff0ef          	jal	ra,40002038 <sd_cmd>
	REG32(spi, SPI_REG_TXFIFO) = d;
    4000233a:	0ff00793          	li	a5,255
    4000233e:	c4bc                	sw	a5,72(s1)
	rc = (sd_cmd(0x50, 0x200, 0x15) != 0x00);
    40002340:	872a                	mv	a4,a0
		r = REG32(spi, SPI_REG_RXFIFO);
    40002342:	640024b7          	lui	s1,0x64002
    40002346:	44fc                	lw	a5,76(s1)
	} while (r < 0);
    40002348:	fe07cfe3          	bltz	a5,40002346 <main+0x24c>
	REG32(spi, SPI_REG_CSMODE) = SPI_CSMODE_AUTO;
    4000234c:	0004ac23          	sw	zero,24(s1) # 64002018 <dtb+0x23fff8b0>
	 		sd_cmd58() ||
    40002350:	ee071ae3          	bnez	a4,40002244 <main+0x14a>
	dputs("CMD18");
    40002354:	00000517          	auipc	a0,0x0
    40002358:	37450513          	addi	a0,a0,884 # 400026c8 <kprintf+0x1b2>
    4000235c:	17c000ef          	jal	ra,400024d8 <kputs>
	kprintf("LOADING  ");
    40002360:	00000517          	auipc	a0,0x0
    40002364:	37050513          	addi	a0,a0,880 # 400026d0 <kprintf+0x1ba>
    40002368:	1ae000ef          	jal	ra,40002516 <kprintf>
	if (sd_cmd(0x52, BBL_PARTITION_START_SECTOR, 0x51) != 0x00) {
    4000236c:	6585                	lui	a1,0x1
	REG32(spi, SPI_REG_SCKDIV) = (F_CLK / FDIV);
    4000236e:	0004a023          	sw	zero,0(s1)
	if (sd_cmd(0x52, BBL_PARTITION_START_SECTOR, 0x51) != 0x00) {
    40002372:	05100613          	li	a2,81
    40002376:	80058593          	addi	a1,a1,-2048 # 800 <_prog_start-0x40001800>
    4000237a:	05200513          	li	a0,82
    4000237e:	cbbff0ef          	jal	ra,40002038 <sd_cmd>
    40002382:	14051063          	bnez	a0,400024c2 <main+0x3c8>
	} while (--i > 0);
    40002386:	00100eb7          	lui	t4,0x100
	volatile uint8_t *p = (void *)(PAYLOAD_DEST);
    4000238a:	4805                	li	a6,1
	crc ^= (crc & 0xff) << 5;
    4000238c:	6889                	lui	a7,0x2
	} while (--i > 0);
    4000238e:	0e85                	addi	t4,t4,1 # 100001 <_prog_start-0x3ff01fff>
	volatile uint8_t *p = (void *)(PAYLOAD_DEST);
    40002390:	087e                	slli	a6,a6,0x1f
	REG32(spi, SPI_REG_TXFIFO) = d;
    40002392:	640026b7          	lui	a3,0x64002
    40002396:	0ff00f13          	li	t5,255
    4000239a:	0ff00513          	li	a0,255
		while (sd_dummy() != 0xFE);
    4000239e:	0fe00e13          	li	t3,254
		r = REG32(spi, SPI_REG_RXFIFO);
    400023a2:	64002fb7          	lui	t6,0x64002
	crc ^= (crc & 0xff) << 5;
    400023a6:	1881                	addi	a7,a7,-32 # 1fe0 <_prog_start-0x40000020>
	} while (--i > 0);
    400023a8:	0eae                	slli	t4,t4,0xb
	REG32(spi, SPI_REG_TXFIFO) = d;
    400023aa:	04868613          	addi	a2,a3,72 # 64002048 <dtb+0x23fff8e0>
    400023ae:	c208                	sw	a0,0(a2)
		r = REG32(spi, SPI_REG_RXFIFO);
    400023b0:	46fc                	lw	a5,76(a3)
    400023b2:	0007871b          	sext.w	a4,a5
	} while (r < 0);
    400023b6:	fe07cde3          	bltz	a5,400023b0 <main+0x2b6>
		while (sd_dummy() != 0xFE);
    400023ba:	0ff77713          	zext.b	a4,a4
    400023be:	ffc718e3          	bne	a4,t3,400023ae <main+0x2b4>
    400023c2:	85c2                	mv	a1,a6
		crc = 0;
    400023c4:	4601                	li	a2,0
    400023c6:	20080813          	addi	a6,a6,512
	REG32(spi, SPI_REG_TXFIFO) = d;
    400023ca:	04868313          	addi	t1,a3,72
    400023ce:	00a32023          	sw	a0,0(t1)
		r = REG32(spi, SPI_REG_RXFIFO);
    400023d2:	46fc                	lw	a5,76(a3)
    400023d4:	0007871b          	sext.w	a4,a5
	} while (r < 0);
    400023d8:	fe07cde3          	bltz	a5,400023d2 <main+0x2d8>
	return r;
    400023dc:	0086179b          	slliw	a5,a2,0x8
    400023e0:	0086561b          	srliw	a2,a2,0x8
    400023e4:	8fd1                	or	a5,a5,a2
    400023e6:	17c2                	slli	a5,a5,0x30
    400023e8:	0ff77713          	zext.b	a4,a4
			*p++ = x;
    400023ec:	93c1                	srli	a5,a5,0x30
	crc ^= data;
    400023ee:	8fb9                	xor	a5,a5,a4
	crc ^= (uint8_t)(crc >> 4) & 0xf;
    400023f0:	0047d61b          	srliw	a2,a5,0x4
    400023f4:	8a3d                	andi	a2,a2,15
    400023f6:	8fb1                	xor	a5,a5,a2
	crc ^= crc << 12;
    400023f8:	00c7961b          	slliw	a2,a5,0xc
    400023fc:	8fb1                	xor	a5,a5,a2
	crc ^= (crc & 0xff) << 5;
    400023fe:	0107961b          	slliw	a2,a5,0x10
    40002402:	0106561b          	srliw	a2,a2,0x10
    40002406:	0056161b          	slliw	a2,a2,0x5
    4000240a:	00c8f633          	and	a2,a7,a2
    4000240e:	8fb1                	xor	a5,a5,a2
    40002410:	03079613          	slli	a2,a5,0x30
			*p++ = x;
    40002414:	00158293          	addi	t0,a1,1
    40002418:	00e58023          	sb	a4,0(a1)
	crc ^= (crc & 0xff) << 5;
    4000241c:	9241                	srli	a2,a2,0x30
		} while (--n > 0);
    4000241e:	01028463          	beq	t0,a6,40002426 <main+0x32c>
			*p++ = x;
    40002422:	8596                	mv	a1,t0
    40002424:	b76d                	j	400023ce <main+0x2d4>
	REG32(spi, SPI_REG_TXFIFO) = d;
    40002426:	05efa423          	sw	t5,72(t6) # 64002048 <dtb+0x23fff8e0>
		r = REG32(spi, SPI_REG_RXFIFO);
    4000242a:	46fc                	lw	a5,76(a3)
    4000242c:	0007871b          	sext.w	a4,a5
	} while (r < 0);
    40002430:	fe07cde3          	bltz	a5,4000242a <main+0x330>
		crc_exp = ((uint16_t)sd_dummy() << 8);
    40002434:	0ff77713          	zext.b	a4,a4
    40002438:	0087171b          	slliw	a4,a4,0x8
    4000243c:	1742                	slli	a4,a4,0x30
    4000243e:	9341                	srli	a4,a4,0x30
	REG32(spi, SPI_REG_TXFIFO) = d;
    40002440:	05e6a423          	sw	t5,72(a3)
		r = REG32(spi, SPI_REG_RXFIFO);
    40002444:	46fc                	lw	a5,76(a3)
    40002446:	0007859b          	sext.w	a1,a5
	} while (r < 0);
    4000244a:	fe07cde3          	bltz	a5,40002444 <main+0x34a>
		crc_exp |= sd_dummy();
    4000244e:	0ff5f793          	zext.b	a5,a1
		if (crc != crc_exp) {
    40002452:	8fd9                	or	a5,a5,a4
    40002454:	04c79f63          	bne	a5,a2,400024b2 <main+0x3b8>
	} while (--i > 0);
    40002458:	f5d299e3          	bne	t0,t4,400023aa <main+0x2b0>
	REG32(spi, SPI_REG_TXFIFO) = d;
    4000245c:	640027b7          	lui	a5,0x64002
    40002460:	0ff00713          	li	a4,255
    40002464:	c7b8                	sw	a4,72(a5)
		r = REG32(spi, SPI_REG_RXFIFO);
    40002466:	640024b7          	lui	s1,0x64002
    4000246a:	44fc                	lw	a5,76(s1)
	} while (r < 0);
    4000246c:	fe07cfe3          	bltz	a5,4000246a <main+0x370>
	REG32(spi, SPI_REG_CSMODE) = SPI_CSMODE_AUTO;
    40002470:	0004ac23          	sw	zero,24(s1) # 64002018 <dtb+0x23fff8b0>
	sd_cmd(0x4C, 0, 0x01);
    40002474:	4605                	li	a2,1
    40002476:	4581                	li	a1,0
    40002478:	04c00513          	li	a0,76
    4000247c:	bbdff0ef          	jal	ra,40002038 <sd_cmd>
	REG32(spi, SPI_REG_TXFIFO) = d;
    40002480:	0ff00793          	li	a5,255
    40002484:	c4bc                	sw	a5,72(s1)
		r = REG32(spi, SPI_REG_RXFIFO);
    40002486:	640027b7          	lui	a5,0x64002
    4000248a:	47f8                	lw	a4,76(a5)
	} while (r < 0);
    4000248c:	fe074fe3          	bltz	a4,4000248a <main+0x390>
	REG32(spi, SPI_REG_CSMODE) = SPI_CSMODE_AUTO;
    40002490:	0007ac23          	sw	zero,24(a5) # 64002018 <dtb+0x23fff8b0>
	kputs("\b ");
    40002494:	00000517          	auipc	a0,0x0
    40002498:	26450513          	addi	a0,a0,612 # 400026f8 <kprintf+0x1e2>
    4000249c:	03c000ef          	jal	ra,400024d8 <kputs>
	 		sd_cmd16() ||
    400024a0:	da0412e3          	bnez	s0,40002244 <main+0x14a>
	 	kputs("FINISH");
    400024a4:	00000517          	auipc	a0,0x0
    400024a8:	26450513          	addi	a0,a0,612 # 40002708 <kprintf+0x1f2>
    400024ac:	02c000ef          	jal	ra,400024d8 <kputs>
    400024b0:	b19d                	j	40002116 <main+0x1c>
			kputs("\b- CRC mismatch ");
    400024b2:	00000517          	auipc	a0,0x0
    400024b6:	22e50513          	addi	a0,a0,558 # 400026e0 <kprintf+0x1ca>
    400024ba:	01e000ef          	jal	ra,400024d8 <kputs>
			rc = 1;
    400024be:	4405                	li	s0,1
			break;
    400024c0:	bf71                	j	4000245c <main+0x362>
	REG32(spi, SPI_REG_TXFIFO) = d;
    400024c2:	0ff00793          	li	a5,255
    400024c6:	c4bc                	sw	a5,72(s1)
		r = REG32(spi, SPI_REG_RXFIFO);
    400024c8:	640027b7          	lui	a5,0x64002
    400024cc:	47f8                	lw	a4,76(a5)
	} while (r < 0);
    400024ce:	fe074fe3          	bltz	a4,400024cc <main+0x3d2>
	REG32(spi, SPI_REG_CSMODE) = SPI_CSMODE_AUTO;
    400024d2:	0007ac23          	sw	zero,24(a5) # 64002018 <dtb+0x23fff8b0>
		return 1;
    400024d6:	b3bd                	j	40002244 <main+0x14a>

00000000400024d8 <kputs>:
#include "kprintf.h"

static inline void _kputs(const char *s)
{
	char c;
	for (; (c = *s) != '\0'; s++)
    400024d8:	00054683          	lbu	a3,0(a0)
    400024dc:	ce81                	beqz	a3,400024f4 <kputs+0x1c>
{
	volatile uint32_t *tx = &REG32(uart, UART_REG_TXFIFO);
#ifdef __riscv_atomic
	int32_t r;
	do {
		__asm__ __volatile__ (
    400024de:	64000737          	lui	a4,0x64000
    400024e2:	40d727af          	amoor.w	a5,a3,(a4)
    400024e6:	2781                	sext.w	a5,a5
			"amoor.w %0, %2, %1\n"
			: "=r" (r), "+A" (*tx)
			: "r" (c));
	} while (r < 0);
    400024e8:	fe07cde3          	bltz	a5,400024e2 <kputs+0xa>
    400024ec:	00154683          	lbu	a3,1(a0)
    400024f0:	0505                	addi	a0,a0,1
    400024f2:	fae5                	bnez	a3,400024e2 <kputs+0xa>
		__asm__ __volatile__ (
    400024f4:	64000737          	lui	a4,0x64000
    400024f8:	46b5                	li	a3,13
    400024fa:	40d727af          	amoor.w	a5,a3,(a4)
    400024fe:	2781                	sext.w	a5,a5
	} while (r < 0);
    40002500:	fe07cde3          	bltz	a5,400024fa <kputs+0x22>
		__asm__ __volatile__ (
    40002504:	64000737          	lui	a4,0x64000
    40002508:	46a9                	li	a3,10
    4000250a:	40d727af          	amoor.w	a5,a3,(a4)
    4000250e:	2781                	sext.w	a5,a5
	} while (r < 0);
    40002510:	fe07cde3          	bltz	a5,4000250a <kputs+0x32>
void kputs(const char *s)
{
	_kputs(s);
	kputc('\r');
	kputc('\n');
}
    40002514:	8082                	ret

0000000040002516 <kprintf>:

void kprintf(const char *fmt, ...)
{
    40002516:	715d                	addi	sp,sp,-80

	va_start(vl, fmt);
	is_format = false;
	is_long = false;
	is_char = false;
	while ((c = *fmt++) != '\0') {
    40002518:	00054303          	lbu	t1,0(a0)
{
    4000251c:	fc3e                	sd	a5,56(sp)
	va_start(vl, fmt);
    4000251e:	083c                	addi	a5,sp,24
{
    40002520:	ec2e                	sd	a1,24(sp)
    40002522:	f032                	sd	a2,32(sp)
    40002524:	f436                	sd	a3,40(sp)
    40002526:	f83a                	sd	a4,48(sp)
    40002528:	e0c2                	sd	a6,64(sp)
    4000252a:	e4c6                	sd	a7,72(sp)
	va_start(vl, fmt);
    4000252c:	e43e                	sd	a5,8(sp)
	while ((c = *fmt++) != '\0') {
    4000252e:	06030163          	beqz	t1,40002590 <kprintf+0x7a>
    40002532:	00150593          	addi	a1,a0,1
    40002536:	4e81                	li	t4,0
    40002538:	4681                	li	a3,0
    4000253a:	4701                	li	a4,0
				break;
			}
			is_format = false;
			is_long = false;
			is_char = false;
		} else if (c == '%') {
    4000253c:	02500e13          	li	t3,37
		__asm__ __volatile__ (
    40002540:	64000637          	lui	a2,0x64000
			switch (c) {
    40002544:	48d5                	li	a7,21
    40002546:	00000817          	auipc	a6,0x0
    4000254a:	1ca80813          	addi	a6,a6,458 # 40002710 <kprintf+0x1fa>
		if (is_format) {
    4000254e:	c755                	beqz	a4,400025fa <kprintf+0xe4>
			switch (c) {
    40002550:	f9d3031b          	addiw	t1,t1,-99
    40002554:	0ff37313          	zext.b	t1,t1
    40002558:	0268e463          	bltu	a7,t1,40002580 <kprintf+0x6a>
    4000255c:	030a                	slli	t1,t1,0x2
    4000255e:	9342                	add	t1,t1,a6
    40002560:	00032783          	lw	a5,0(t1)
    40002564:	97c2                	add	a5,a5,a6
    40002566:	8782                	jr	a5
				kputc(va_arg(vl, int));
    40002568:	67a2                	ld	a5,8(sp)
    4000256a:	64000737          	lui	a4,0x64000
    4000256e:	0007c683          	lbu	a3,0(a5)
    40002572:	07a1                	addi	a5,a5,8
    40002574:	e43e                	sd	a5,8(sp)
    40002576:	40d727af          	amoor.w	a5,a3,(a4)
    4000257a:	2781                	sext.w	a5,a5
	} while (r < 0);
    4000257c:	fe07cde3          	bltz	a5,40002576 <kprintf+0x60>
			is_char = false;
    40002580:	4e81                	li	t4,0
			is_long = false;
    40002582:	4681                	li	a3,0
			is_format = false;
    40002584:	4701                	li	a4,0
	while ((c = *fmt++) != '\0') {
    40002586:	0005c303          	lbu	t1,0(a1)
    4000258a:	0585                	addi	a1,a1,1
    4000258c:	fc0311e3          	bnez	t1,4000254e <kprintf+0x38>
		} else {
			kputc(c);
		}
	}
	va_end(vl);
    40002590:	6161                	addi	sp,sp,80
    40002592:	8082                	ret
					n = va_arg(vl, unsigned long);
    40002594:	67a2                	ld	a5,8(sp)
    40002596:	00878713          	addi	a4,a5,8
				if (is_long) {
    4000259a:	cebd                	beqz	a3,40002618 <kprintf+0x102>
					n = va_arg(vl, unsigned long);
    4000259c:	0007bf83          	ld	t6,0(a5)
    400025a0:	e43a                	sd	a4,8(sp)
					i = (sizeof(unsigned long) << 3) - 4;
    400025a2:	03c00513          	li	a0,60
					kputc(d < 10 ? '0' + d : 'a' + d - 10);
    400025a6:	4f25                	li	t5,9
		__asm__ __volatile__ (
    400025a8:	64000737          	lui	a4,0x64000
				for (; i >= 0; i -= 4) {
    400025ac:	5ef1                	li	t4,-4
					d = (n >> i) & 0xF;
    400025ae:	00afd7b3          	srl	a5,t6,a0
					kputc(d < 10 ? '0' + d : 'a' + d - 10);
    400025b2:	00f7f313          	andi	t1,a5,15
    400025b6:	05730693          	addi	a3,t1,87
    400025ba:	006f6463          	bltu	t5,t1,400025c2 <kprintf+0xac>
    400025be:	03030693          	addi	a3,t1,48
    400025c2:	40d727af          	amoor.w	a5,a3,(a4)
    400025c6:	2781                	sext.w	a5,a5
	} while (r < 0);
    400025c8:	fe07cde3          	bltz	a5,400025c2 <kprintf+0xac>
				for (; i >= 0; i -= 4) {
    400025cc:	1571                	addi	a0,a0,-4
    400025ce:	ffd510e3          	bne	a0,t4,400025ae <kprintf+0x98>
    400025d2:	b77d                	j	40002580 <kprintf+0x6a>
				_kputs(va_arg(vl, const char *));
    400025d4:	67a2                	ld	a5,8(sp)
    400025d6:	6388                	ld	a0,0(a5)
    400025d8:	07a1                	addi	a5,a5,8
    400025da:	e43e                	sd	a5,8(sp)
	for (; (c = *s) != '\0'; s++)
    400025dc:	00054683          	lbu	a3,0(a0)
    400025e0:	d2c5                	beqz	a3,40002580 <kprintf+0x6a>
		__asm__ __volatile__ (
    400025e2:	64000737          	lui	a4,0x64000
    400025e6:	40d727af          	amoor.w	a5,a3,(a4)
    400025ea:	2781                	sext.w	a5,a5
	} while (r < 0);
    400025ec:	fe07cde3          	bltz	a5,400025e6 <kprintf+0xd0>
    400025f0:	00154683          	lbu	a3,1(a0)
    400025f4:	0505                	addi	a0,a0,1
    400025f6:	fae5                	bnez	a3,400025e6 <kprintf+0xd0>
    400025f8:	b761                	j	40002580 <kprintf+0x6a>
		} else if (c == '%') {
    400025fa:	01c31463          	bne	t1,t3,40002602 <kprintf+0xec>
			is_format = true;
    400025fe:	4705                	li	a4,1
    40002600:	b759                	j	40002586 <kprintf+0x70>
		__asm__ __volatile__ (
    40002602:	406627af          	amoor.w	a5,t1,(a2)
    40002606:	2781                	sext.w	a5,a5
	} while (r < 0);
    40002608:	f607dfe3          	bgez	a5,40002586 <kprintf+0x70>
		__asm__ __volatile__ (
    4000260c:	406627af          	amoor.w	a5,t1,(a2)
    40002610:	2781                	sext.w	a5,a5
	} while (r < 0);
    40002612:	fe07c8e3          	bltz	a5,40002602 <kprintf+0xec>
    40002616:	bf85                	j	40002586 <kprintf+0x70>
					n = va_arg(vl, unsigned int);
    40002618:	e43a                	sd	a4,8(sp)
    4000261a:	0007ef83          	lwu	t6,0(a5)
					i = is_char ? 4 : (sizeof(unsigned int) << 3) - 4;
    4000261e:	4571                	li	a0,28
    40002620:	f80e83e3          	beqz	t4,400025a6 <kprintf+0x90>
    40002624:	4511                	li	a0,4
    40002626:	b741                	j	400025a6 <kprintf+0x90>
			switch (c) {
    40002628:	8eba                	mv	t4,a4
    4000262a:	bfb1                	j	40002586 <kprintf+0x70>
				is_long = true;
    4000262c:	86ba                	mv	a3,a4
    4000262e:	bfa1                	j	40002586 <kprintf+0x70>
	...

Disassembly of section .rodata:

0000000040002670 <dtb-0xf8>:
    40002670:	635f6473          	csrrsi	s0,0x635,30
    40002674:	646d                	lui	s0,0x1b
    40002676:	203a                	fld	ft0,392(sp)
    40002678:	6974                	ld	a3,208(a0)
    4000267a:	656d                	lui	a0,0x1b
    4000267c:	0074756f          	jal	a0,40049e82 <dtb+0x4771a>
    40002680:	65726f43          	.4byte	0x65726f43
    40002684:	3020                	fld	fs0,96(s0)
    40002686:	203a                	fld	ft0,392(sp)
    40002688:	455a                	lw	a0,148(sp)
    4000268a:	4f52                	lw	t5,20(sp)
    4000268c:	5320                	lw	s0,96(a4)
    4000268e:	4154                	lw	a3,4(a0)
    40002690:	42204547          	fmsub.d	fa0,ft0,ft2,fs0,rmm
    40002694:	2e544f4f          	.4byte	0x2e544f4f
    40002698:	002e                	c.slli	zero,0xb
    4000269a:	0000                	unimp
    4000269c:	0000                	unimp
    4000269e:	0000                	unimp
    400026a0:	30444d43          	fmadd.s	fs10,fs0,ft4,ft6,rmm
    400026a4:	0000                	unimp
    400026a6:	0000                	unimp
    400026a8:	38444d43          	fmadd.s	fs10,fs0,ft4,ft7,rmm
    400026ac:	0000                	unimp
    400026ae:	0000                	unimp
    400026b0:	4341                	li	t1,16
    400026b2:	444d                	li	s0,19
    400026b4:	3134                	fld	fa3,96(a0)
    400026b6:	0000                	unimp
    400026b8:	35444d43          	.4byte	0x35444d43
    400026bc:	0038                	addi	a4,sp,8
    400026be:	0000                	unimp
    400026c0:	31444d43          	fmadd.s	fs10,fs0,fs4,ft6,rmm
    400026c4:	0036                	c.slli	zero,0xd
    400026c6:	0000                	unimp
    400026c8:	31444d43          	fmadd.s	fs10,fs0,fs4,ft6,rmm
    400026cc:	0038                	addi	a4,sp,8
    400026ce:	0000                	unimp
    400026d0:	4f4c                	lw	a1,28(a4)
    400026d2:	4441                	li	s0,16
    400026d4:	4e49                	li	t3,18
    400026d6:	00202047          	fmsub.s	ft0,ft0,ft2,ft0,rdn
    400026da:	0000                	unimp
    400026dc:	0000                	unimp
    400026de:	0000                	unimp
    400026e0:	2d08                	fld	fa0,24(a0)
    400026e2:	4320                	lw	s0,64(a4)
    400026e4:	4352                	lw	t1,20(sp)
    400026e6:	6d20                	ld	s0,88(a0)
    400026e8:	7369                	lui	t1,0xffffa
    400026ea:	616d                	addi	sp,sp,240
    400026ec:	6374                	ld	a3,192(a4)
    400026ee:	2068                	fld	fa0,192(s0)
	...
    400026f8:	2008                	fld	fa0,0(s0)
    400026fa:	0000                	unimp
    400026fc:	0000                	unimp
    400026fe:	0000                	unimp
    40002700:	5245                	li	tp,-15
    40002702:	4f52                	lw	t5,20(sp)
    40002704:	0052                	c.slli	zero,0x14
    40002706:	0000                	unimp
    40002708:	4946                	lw	s2,80(sp)
    4000270a:	494e                	lw	s2,208(sp)
    4000270c:	00004853          	fadd.s	fa6,ft0,ft0,rmm
    40002710:	fe58                	sd	a4,184(a2)
    40002712:	ffff                	.2byte	0xffff
    40002714:	fe70                	sd	a2,248(a2)
    40002716:	ffff                	.2byte	0xffff
    40002718:	fe70                	sd	a2,248(a2)
    4000271a:	ffff                	.2byte	0xffff
    4000271c:	fe70                	sd	a2,248(a2)
    4000271e:	ffff                	.2byte	0xffff
    40002720:	fe70                	sd	a2,248(a2)
    40002722:	ffff                	.2byte	0xffff
    40002724:	ff18                	sd	a4,56(a4)
    40002726:	ffff                	.2byte	0xffff
    40002728:	fe70                	sd	a2,248(a2)
    4000272a:	ffff                	.2byte	0xffff
    4000272c:	fe70                	sd	a2,248(a2)
    4000272e:	ffff                	.2byte	0xffff
    40002730:	fe70                	sd	a2,248(a2)
    40002732:	ffff                	.2byte	0xffff
    40002734:	ff1c                	sd	a5,56(a4)
    40002736:	ffff                	.2byte	0xffff
    40002738:	fe70                	sd	a2,248(a2)
    4000273a:	ffff                	.2byte	0xffff
    4000273c:	fe70                	sd	a2,248(a2)
    4000273e:	ffff                	.2byte	0xffff
    40002740:	fe70                	sd	a2,248(a2)
    40002742:	ffff                	.2byte	0xffff
    40002744:	fe70                	sd	a2,248(a2)
    40002746:	ffff                	.2byte	0xffff
    40002748:	fe70                	sd	a2,248(a2)
    4000274a:	ffff                	.2byte	0xffff
    4000274c:	fe70                	sd	a2,248(a2)
    4000274e:	ffff                	.2byte	0xffff
    40002750:	fec4                	sd	s1,184(a3)
    40002752:	ffff                	.2byte	0xffff
    40002754:	fe70                	sd	a2,248(a2)
    40002756:	ffff                	.2byte	0xffff
    40002758:	fe70                	sd	a2,248(a2)
    4000275a:	ffff                	.2byte	0xffff
    4000275c:	fe70                	sd	a2,248(a2)
    4000275e:	ffff                	.2byte	0xffff
    40002760:	fe70                	sd	a2,248(a2)
    40002762:	ffff                	.2byte	0xffff
    40002764:	fe84                	sd	s1,56(a3)
    40002766:	ffff                	.2byte	0xffff

Disassembly of section .riscv.attributes:

0000000000000000 <.riscv.attributes>:
   0:	3841                	addiw	a6,a6,-16
   2:	0000                	unimp
   4:	7200                	ld	s0,32(a2)
   6:	7369                	lui	t1,0xffffa
   8:	01007663          	bgeu	zero,a6,14 <_prog_start-0x40001fec>
   c:	002e                	c.slli	zero,0xb
   e:	0000                	unimp
  10:	1004                	addi	s1,sp,32
  12:	7205                	lui	tp,0xfffe1
  14:	3676                	fld	fa2,376(sp)
  16:	6934                	ld	a3,80(a0)
  18:	7032                	.2byte	0x7032
  1a:	5f30                	lw	a2,120(a4)
  1c:	326d                	addiw	tp,tp,-5 # fffffffffffe0ffb <_sp+0xffffffff8ffdfffb>
  1e:	3070                	fld	fa2,224(s0)
  20:	615f 7032 5f30      	.byte	0x5f, 0x61, 0x32, 0x70, 0x30, 0x5f
  26:	3266                	fld	ft4,120(sp)
  28:	3070                	fld	fa2,224(s0)
  2a:	645f 7032 5f30      	.byte	0x5f, 0x64, 0x32, 0x70, 0x30, 0x5f
  30:	30703263          	.4byte	0x30703263
  34:	0800                	addi	s0,sp,16
  36:	0a01                	addi	s4,s4,0
  38:	0b              	Address 0x0000000000000038 is out of bounds.


Disassembly of section .comment:

0000000000000000 <.comment>:
   0:	3a434347          	fmsub.d	ft6,ft6,ft4,ft7,rmm
   4:	2820                	fld	fs0,80(s0)
   6:	65653267          	.4byte	0x65653267
   a:	6535                	lui	a0,0xd
   c:	3334                	fld	fa3,96(a4)
   e:	3030                	fld	fa2,96(s0)
  10:	3831                	addiw	a6,a6,-20
  12:	2029                	.2byte	0x2029
  14:	3231                	addiw	tp,tp,-20 # ffffffffffffffec <_sp+0xffffffff8fffefec>
  16:	322e                	fld	ft4,232(sp)
  18:	302e                	fld	ft0,232(sp)
	...

Disassembly of section .debug_line:

0000000000000000 <.debug_line>:
       0:	0074                	addi	a3,sp,12
       2:	0000                	unimp
       4:	0005                	c.nop	1
       6:	0008                	.2byte	0x8
       8:	002a                	c.slli	zero,0xa
       a:	0000                	unimp
       c:	0101                	addi	sp,sp,0
       e:	fb01                	bnez	a4,ffffffffffffff1e <_sp+0xffffffff8fffef1e>
      10:	0d0e                	slli	s10,s10,0x3
      12:	0100                	addi	s0,sp,128
      14:	0101                	addi	sp,sp,0
      16:	0001                	nop
      18:	0000                	unimp
      1a:	0001                	nop
      1c:	0100                	addi	s0,sp,128
      1e:	0101                	addi	sp,sp,0
      20:	011f 0000 0000      	.byte	0x1f, 0x01, 0x00, 0x00, 0x00, 0x00
      26:	0102                	c.slli64	sp
      28:	021f 020f 0059      	.byte	0x1f, 0x02, 0x0f, 0x02, 0x59, 0x00
      2e:	0000                	unimp
      30:	5900                	lw	s0,48(a0)
      32:	0000                	unimp
      34:	0000                	unimp
      36:	0900                	addi	s0,sp,144
      38:	0002                	c.slli64	zero
      3a:	0020                	addi	s0,sp,8
      3c:	0040                	addi	s0,sp,4
      3e:	0000                	unimp
      40:	1900                	addi	s0,sp,176
      42:	04090103          	lb	sp,64(s2)
      46:	0100                	addi	s0,sp,128
      48:	04090103          	lb	sp,64(s2)
      4c:	0100                	addi	s0,sp,128
      4e:	04090103          	lb	sp,64(s2)
      52:	0100                	addi	s0,sp,128
      54:	10090103          	lb	sp,256(s2)
      58:	0100                	addi	s0,sp,128
      5a:	04090103          	lb	sp,64(s2)
      5e:	0100                	addi	s0,sp,128
      60:	08090103          	lb	sp,128(s2)
      64:	0100                	addi	s0,sp,128
      66:	08090103          	lb	sp,128(s2)
      6a:	0100                	addi	s0,sp,128
      6c:	04090103          	lb	sp,64(s2)
      70:	0100                	addi	s0,sp,128
      72:	0409                	addi	s0,s0,2 # 1b002 <_prog_start-0x3ffe6ffe>
      74:	0000                	unimp
      76:	0101                	addi	sp,sp,0
      78:	1001                	c.nop	-32
      7a:	0000                	unimp
      7c:	0005                	c.nop	1
      7e:	0008                	.2byte	0x8
      80:	0041                	c.nop	16
      82:	0000                	unimp
      84:	0101                	addi	sp,sp,0
      86:	fb01                	bnez	a4,ffffffffffffff96 <_sp+0xffffffff8fffef96>
      88:	0d0e                	slli	s10,s10,0x3
      8a:	0100                	addi	s0,sp,128
      8c:	0101                	addi	sp,sp,0
      8e:	0001                	nop
      90:	0000                	unimp
      92:	0001                	nop
      94:	0100                	addi	s0,sp,128
      96:	0101                	addi	sp,sp,0
      98:	031f 0000 0000      	.byte	0x1f, 0x03, 0x00, 0x00, 0x00, 0x00
      9e:	0065                	c.nop	25
      a0:	0000                	unimp
      a2:	00cd                	addi	ra,ra,19
      a4:	0000                	unimp
      a6:	0102                	c.slli64	sp
      a8:	021f 050f 0060      	.byte	0x1f, 0x02, 0x0f, 0x05, 0x60, 0x00
      ae:	0000                	unimp
      b0:	6000                	ld	s0,0(s0)
      b2:	0000                	unimp
      b4:	0000                	unimp
      b6:	0131                	addi	sp,sp,12
      b8:	0000                	unimp
      ba:	4201                	li	tp,0
      bc:	0001                	nop
      be:	0200                	addi	s0,sp,256
      c0:	014c                	addi	a1,sp,132
      c2:	0000                	unimp
      c4:	0500                	addi	s0,sp,640
      c6:	0001                	nop
      c8:	0209                	addi	tp,tp,2 # 2 <_prog_start-0x40001ffe>
      ca:	2038                	fld	fa4,64(s0)
      cc:	4000                	lw	s0,0(s0)
      ce:	0000                	unimp
      d0:	0000                	unimp
      d2:	05013303          	ld	t1,80(sp)
      d6:	0302                	c.slli64	t1
      d8:	0901                	addi	s2,s2,0
      da:	0000                	unimp
      dc:	0301                	addi	t1,t1,0 # ffffffffffffa000 <_sp+0xffffffff8fff9000>
      de:	0901                	addi	s2,s2,0
      e0:	0000                	unimp
      e2:	0301                	addi	t1,t1,0
      e4:	0902                	c.slli64	s2
      e6:	0000                	unimp
      e8:	0501                	addi	a0,a0,0 # d000 <_prog_start-0x3fff5000>
      ea:	0601                	addi	a2,a2,0 # 64000000 <dtb+0x23ffd898>
      ec:	00097c03          	.4byte	0x97c03
      f0:	0100                	addi	s0,sp,128
      f2:	1d05                	addi	s10,s10,-31
      f4:	06090403          	lb	s0,96(s2)
      f8:	0100                	addi	s0,sp,128
      fa:	0205                	addi	tp,tp,1 # 1 <_prog_start-0x40001fff>
      fc:	0306                	slli	t1,t1,0x1
      fe:	0901                	addi	s2,s2,0
     100:	0008                	.2byte	0x8
     102:	0301                	addi	t1,t1,0
     104:	00000977          	.4byte	0x977
     108:	0301                	addi	t1,t1,0
     10a:	0975                	addi	s2,s2,29
     10c:	0000                	unimp
     10e:	0301                	addi	t1,t1,0
     110:	0902                	c.slli64	s2
     112:	0000                	unimp
     114:	0501                	addi	a0,a0,0
     116:	061d                	addi	a2,a2,7
     118:	00090003          	lb	zero,0(s2)
     11c:	0100                	addi	s0,sp,128
     11e:	0705                	addi	a4,a4,1 # 64000001 <dtb+0x23ffd899>
     120:	06090203          	lb	tp,96(s2)
     124:	0100                	addi	s0,sp,128
     126:	0205                	addi	tp,tp,1 # 1 <_prog_start-0x40001fff>
     128:	0306                	slli	t1,t1,0x1
     12a:	097f                	.2byte	0x97f
     12c:	0004                	.2byte	0x4
     12e:	0501                	addi	a0,a0,0
     130:	09010303          	lb	t1,144(sp)
     134:	0000                	unimp
     136:	0501                	addi	a0,a0,0
     138:	00030607          	.4byte	0x30607
     13c:	0009                	c.nop	2
     13e:	0100                	addi	s0,sp,128
     140:	0d05                	addi	s10,s10,1
     142:	0306                	slli	t1,t1,0x1
     144:	0901                	addi	s2,s2,0
     146:	0002                	c.slli64	zero
     148:	0501                	addi	a0,a0,0
     14a:	0302                	c.slli64	t1
     14c:	0901                	addi	s2,s2,0
     14e:	0004                	.2byte	0x4
     150:	0301                	addi	t1,t1,0
     152:	0000090f          	.4byte	0x90f
     156:	0301                	addi	t1,t1,0
     158:	0000096b          	.4byte	0x96b
     15c:	0301                	addi	t1,t1,0
     15e:	0902                	c.slli64	s2
     160:	0000                	unimp
     162:	0501                	addi	a0,a0,0
     164:	061d                	addi	a2,a2,7
     166:	00090003          	lb	zero,0(s2)
     16a:	0100                	addi	s0,sp,128
     16c:	0705                	addi	a4,a4,1
     16e:	04090203          	lb	tp,64(s2)
     172:	0100                	addi	s0,sp,128
     174:	0205                	addi	tp,tp,1 # 1 <_prog_start-0x40001fff>
     176:	0306                	slli	t1,t1,0x1
     178:	097f                	.2byte	0x97f
     17a:	0004                	.2byte	0x4
     17c:	0501                	addi	a0,a0,0
     17e:	09010303          	lb	t1,144(sp)
     182:	0000                	unimp
     184:	0501                	addi	a0,a0,0
     186:	00030607          	.4byte	0x30607
     18a:	0009                	c.nop	2
     18c:	0100                	addi	s0,sp,128
     18e:	0d05                	addi	s10,s10,1
     190:	0306                	slli	t1,t1,0x1
     192:	0901                	addi	s2,s2,0
     194:	0002                	c.slli64	zero
     196:	0501                	addi	a0,a0,0
     198:	0302                	c.slli64	t1
     19a:	0901                	addi	s2,s2,0
     19c:	0004                	.2byte	0x4
     19e:	0301                	addi	t1,t1,0
     1a0:	0910                	addi	a2,sp,144
     1a2:	0000                	unimp
     1a4:	0501                	addi	a0,a0,0
     1a6:	0003060f          	.4byte	0x3060f
     1aa:	0009                	c.nop	2
     1ac:	0100                	addi	s0,sp,128
     1ae:	0205                	addi	tp,tp,1 # 1 <_prog_start-0x40001fff>
     1b0:	0306                	slli	t1,t1,0x1
     1b2:	096a                	slli	s2,s2,0x1a
     1b4:	0004                	.2byte	0x4
     1b6:	0301                	addi	t1,t1,0
     1b8:	0902                	c.slli64	s2
     1ba:	0000                	unimp
     1bc:	0501                	addi	a0,a0,0
     1be:	061d                	addi	a2,a2,7
     1c0:	00090003          	lb	zero,0(s2)
     1c4:	0100                	addi	s0,sp,128
     1c6:	0705                	addi	a4,a4,1
     1c8:	02090203          	lb	tp,32(s2)
     1cc:	0100                	addi	s0,sp,128
     1ce:	0205                	addi	tp,tp,1 # 1 <_prog_start-0x40001fff>
     1d0:	0306                	slli	t1,t1,0x1
     1d2:	097f                	.2byte	0x97f
     1d4:	0004                	.2byte	0x4
     1d6:	0501                	addi	a0,a0,0
     1d8:	09010303          	lb	t1,144(sp)
     1dc:	0000                	unimp
     1de:	0501                	addi	a0,a0,0
     1e0:	00030607          	.4byte	0x30607
     1e4:	0009                	c.nop	2
     1e6:	0100                	addi	s0,sp,128
     1e8:	0d05                	addi	s10,s10,1
     1ea:	0306                	slli	t1,t1,0x1
     1ec:	0901                	addi	s2,s2,0
     1ee:	0002                	c.slli64	zero
     1f0:	0501                	addi	a0,a0,0
     1f2:	0302                	c.slli64	t1
     1f4:	0901                	addi	s2,s2,0
     1f6:	0004                	.2byte	0x4
     1f8:	0301                	addi	t1,t1,0
     1fa:	0911                	addi	s2,s2,4
     1fc:	0000                	unimp
     1fe:	0301                	addi	t1,t1,0
     200:	0969                	addi	s2,s2,26
     202:	0000                	unimp
     204:	0301                	addi	t1,t1,0
     206:	0902                	c.slli64	s2
     208:	0000                	unimp
     20a:	0501                	addi	a0,a0,0
     20c:	061d                	addi	a2,a2,7
     20e:	00090003          	lb	zero,0(s2)
     212:	0100                	addi	s0,sp,128
     214:	0705                	addi	a4,a4,1
     216:	04090203          	lb	tp,64(s2)
     21a:	0100                	addi	s0,sp,128
     21c:	0205                	addi	tp,tp,1 # 1 <_prog_start-0x40001fff>
     21e:	0306                	slli	t1,t1,0x1
     220:	097f                	.2byte	0x97f
     222:	0004                	.2byte	0x4
     224:	0501                	addi	a0,a0,0
     226:	09010303          	lb	t1,144(sp)
     22a:	0000                	unimp
     22c:	0501                	addi	a0,a0,0
     22e:	00030607          	.4byte	0x30607
     232:	0009                	c.nop	2
     234:	0100                	addi	s0,sp,128
     236:	0d05                	addi	s10,s10,1
     238:	0306                	slli	t1,t1,0x1
     23a:	0901                	addi	s2,s2,0
     23c:	0002                	c.slli64	zero
     23e:	0501                	addi	a0,a0,0
     240:	0302                	c.slli64	t1
     242:	0901                	addi	s2,s2,0
     244:	0004                	.2byte	0x4
     246:	0301                	addi	t1,t1,0
     248:	0912                	slli	s2,s2,0x4
     24a:	0000                	unimp
     24c:	0301                	addi	t1,t1,0
     24e:	0968                	addi	a0,sp,156
     250:	0000                	unimp
     252:	0301                	addi	t1,t1,0
     254:	0902                	c.slli64	s2
     256:	0000                	unimp
     258:	0501                	addi	a0,a0,0
     25a:	1603060f          	.4byte	0x1603060f
     25e:	0009                	c.nop	2
     260:	0100                	addi	s0,sp,128
     262:	1d05                	addi	s10,s10,-31
     264:	08096a03          	lwu	s4,128(s2)
     268:	0100                	addi	s0,sp,128
     26a:	0705                	addi	a4,a4,1
     26c:	02090203          	lb	tp,32(s2)
     270:	0100                	addi	s0,sp,128
     272:	0205                	addi	tp,tp,1 # 1 <_prog_start-0x40001fff>
     274:	0306                	slli	t1,t1,0x1
     276:	097f                	.2byte	0x97f
     278:	0004                	.2byte	0x4
     27a:	0501                	addi	a0,a0,0
     27c:	09010303          	lb	t1,144(sp)
     280:	0000                	unimp
     282:	0501                	addi	a0,a0,0
     284:	00030607          	.4byte	0x30607
     288:	0009                	c.nop	2
     28a:	0100                	addi	s0,sp,128
     28c:	0d05                	addi	s10,s10,1
     28e:	0306                	slli	t1,t1,0x1
     290:	0901                	addi	s2,s2,0
     292:	0002                	c.slli64	zero
     294:	0501                	addi	a0,a0,0
     296:	0302                	c.slli64	t1
     298:	0901                	addi	s2,s2,0
     29a:	0004                	.2byte	0x4
     29c:	0301                	addi	t1,t1,0
     29e:	00000913          	li	s2,0
     2a2:	0301                	addi	t1,t1,0
     2a4:	00000967          	jalr	s2,zero # 0 <_prog_start-0x40002000>
     2a8:	0301                	addi	t1,t1,0
     2aa:	0902                	c.slli64	s2
     2ac:	0000                	unimp
     2ae:	0501                	addi	a0,a0,0
     2b0:	061d                	addi	a2,a2,7
     2b2:	04090003          	lb	zero,64(s2)
     2b6:	0100                	addi	s0,sp,128
     2b8:	0705                	addi	a4,a4,1
     2ba:	02090203          	lb	tp,32(s2)
     2be:	0100                	addi	s0,sp,128
     2c0:	0205                	addi	tp,tp,1 # 1 <_prog_start-0x40001fff>
     2c2:	0306                	slli	t1,t1,0x1
     2c4:	097f                	.2byte	0x97f
     2c6:	0004                	.2byte	0x4
     2c8:	0501                	addi	a0,a0,0
     2ca:	09010303          	lb	t1,144(sp)
     2ce:	0000                	unimp
     2d0:	0501                	addi	a0,a0,0
     2d2:	00030607          	.4byte	0x30607
     2d6:	0009                	c.nop	2
     2d8:	0100                	addi	s0,sp,128
     2da:	0d05                	addi	s10,s10,1
     2dc:	0306                	slli	t1,t1,0x1
     2de:	0901                	addi	s2,s2,0
     2e0:	0002                	c.slli64	zero
     2e2:	0501                	addi	a0,a0,0
     2e4:	0302                	c.slli64	t1
     2e6:	0901                	addi	s2,s2,0
     2e8:	0004                	.2byte	0x4
     2ea:	0301                	addi	t1,t1,0
     2ec:	0914                	addi	a3,sp,144
     2ee:	0000                	unimp
     2f0:	0301                	addi	t1,t1,0
     2f2:	0966                	slli	s2,s2,0x19
     2f4:	0000                	unimp
     2f6:	0301                	addi	t1,t1,0
     2f8:	0902                	c.slli64	s2
     2fa:	0000                	unimp
     2fc:	0501                	addi	a0,a0,0
     2fe:	061d                	addi	a2,a2,7
     300:	00090003          	lb	zero,0(s2)
     304:	0100                	addi	s0,sp,128
     306:	0705                	addi	a4,a4,1
     308:	06090203          	lb	tp,96(s2)
     30c:	0100                	addi	s0,sp,128
     30e:	0205                	addi	tp,tp,1 # 1 <_prog_start-0x40001fff>
     310:	0306                	slli	t1,t1,0x1
     312:	097f                	.2byte	0x97f
     314:	0004                	.2byte	0x4
     316:	0501                	addi	a0,a0,0
     318:	09010303          	lb	t1,144(sp)
     31c:	0000                	unimp
     31e:	0501                	addi	a0,a0,0
     320:	00030607          	.4byte	0x30607
     324:	0009                	c.nop	2
     326:	0100                	addi	s0,sp,128
     328:	0d05                	addi	s10,s10,1
     32a:	0306                	slli	t1,t1,0x1
     32c:	0901                	addi	s2,s2,0
     32e:	0002                	c.slli64	zero
     330:	0501                	addi	a0,a0,0
     332:	061d                	addi	a2,a2,7
     334:	04097d03          	.4byte	0x4097d03
     338:	0100                	addi	s0,sp,128
     33a:	0205                	addi	tp,tp,1 # 1 <_prog_start-0x40001fff>
     33c:	0306                	slli	t1,t1,0x1
     33e:	0010091b          	addiw	s2,zero,1
     342:	0501                	addi	a0,a0,0
     344:	09010303          	lb	t1,144(sp)
     348:	0000                	unimp
     34a:	0501                	addi	a0,a0,0
     34c:	0302                	c.slli64	t1
     34e:	096d                	addi	s2,s2,27
     350:	0000                	unimp
     352:	0301                	addi	t1,t1,0
     354:	0975                	addi	s2,s2,29
     356:	0000                	unimp
     358:	0301                	addi	t1,t1,0
     35a:	0902                	c.slli64	s2
     35c:	0000                	unimp
     35e:	0501                	addi	a0,a0,0
     360:	061d                	addi	a2,a2,7
     362:	00090003          	lb	zero,0(s2)
     366:	0100                	addi	s0,sp,128
     368:	0205                	addi	tp,tp,1 # 1 <_prog_start-0x40001fff>
     36a:	0306                	slli	t1,t1,0x1
     36c:	0901                	addi	s2,s2,0
     36e:	0002                	c.slli64	zero
     370:	0501                	addi	a0,a0,0
     372:	09010303          	lb	t1,144(sp)
     376:	0000                	unimp
     378:	0501                	addi	a0,a0,0
     37a:	00030607          	.4byte	0x30607
     37e:	0009                	c.nop	2
     380:	0100                	addi	s0,sp,128
     382:	0d05                	addi	s10,s10,1
     384:	0306                	slli	t1,t1,0x1
     386:	0901                	addi	s2,s2,0
     388:	0006                	c.slli	zero,0x1
     38a:	0501                	addi	a0,a0,0
     38c:	0302                	c.slli64	t1
     38e:	0901                	addi	s2,s2,0
     390:	0004                	.2byte	0x4
     392:	0501                	addi	a0,a0,0
     394:	09190303          	lb	t1,145(s2)
     398:	0000                	unimp
     39a:	0501                	addi	a0,a0,0
     39c:	0606                	slli	a2,a2,0x1
     39e:	00090003          	lb	zero,0(s2)
     3a2:	0100                	addi	s0,sp,128
     3a4:	0f05                	addi	t5,t5,1
     3a6:	0306                	slli	t1,t1,0x1
     3a8:	0904                	addi	s1,sp,144
     3aa:	000c                	.2byte	0xc
     3ac:	0501                	addi	a0,a0,0
     3ae:	0302                	c.slli64	t1
     3b0:	0901                	addi	s2,s2,0
     3b2:	0004                	.2byte	0x4
     3b4:	0301                	addi	t1,t1,0
     3b6:	0902                	c.slli64	s2
     3b8:	000c                	.2byte	0xc
     3ba:	0501                	addi	a0,a0,0
     3bc:	0601                	addi	a2,a2,0
     3be:	00090103          	lb	sp,0(s2)
     3c2:	0100                	addi	s0,sp,128
     3c4:	0c09                	addi	s8,s8,2
     3c6:	0000                	unimp
     3c8:	0101                	addi	sp,sp,0
     3ca:	0105                	addi	sp,sp,1
     3cc:	0900                	addi	s0,sp,144
     3ce:	fa02                	sd	zero,304(sp)
     3d0:	0020                	addi	s0,sp,8
     3d2:	0040                	addi	s0,sp,4
     3d4:	0000                	unimp
     3d6:	0300                	addi	s0,sp,384
     3d8:	01e9                	addi	gp,gp,26
     3da:	0501                	addi	a0,a0,0
     3dc:	0302                	c.slli64	t1
     3de:	0901                	addi	s2,s2,0
     3e0:	0000                	unimp
     3e2:	0501                	addi	a0,a0,0
     3e4:	0601                	addi	a2,a2,0
     3e6:	00097f03          	.4byte	0x97f03
     3ea:	0100                	addi	s0,sp,128
     3ec:	1f05                	addi	t5,t5,-31
     3ee:	0c090103          	lb	sp,192(s2)
     3f2:	0100                	addi	s0,sp,128
     3f4:	0205                	addi	tp,tp,1 # 1 <_prog_start-0x40001fff>
     3f6:	0306                	slli	t1,t1,0x1
     3f8:	0902                	c.slli64	s2
     3fa:	0008                	.2byte	0x8
     3fc:	0501                	addi	a0,a0,0
     3fe:	0310                	addi	a2,sp,384
     400:	0900                	addi	s0,sp,144
     402:	0000                	unimp
     404:	0301                	addi	t1,t1,0
     406:	0900                	addi	s0,sp,144
     408:	0000                	unimp
     40a:	0301                	addi	t1,t1,0
     40c:	0900                	addi	s0,sp,144
     40e:	0004                	.2byte	0x4
     410:	0501                	addi	a0,a0,0
     412:	0606                	slli	a2,a2,0x1
     414:	00090003          	lb	zero,0(s2)
     418:	0100                	addi	s0,sp,128
     41a:	0205                	addi	tp,tp,1 # 1 <_prog_start-0x40001fff>
     41c:	0306                	slli	t1,t1,0x1
     41e:	0902                	c.slli64	s2
     420:	0002                	c.slli64	zero
     422:	0501                	addi	a0,a0,0
     424:	0605                	addi	a2,a2,1
     426:	00090003          	lb	zero,0(s2)
     42a:	0100                	addi	s0,sp,128
     42c:	0205                	addi	tp,tp,1 # 1 <_prog_start-0x40001fff>
     42e:	0306                	slli	t1,t1,0x1
     430:	0910                	addi	a2,sp,144
     432:	0002                	c.slli64	zero
     434:	0301                	addi	t1,t1,0
     436:	0902                	c.slli64	s2
     438:	0004                	.2byte	0x4
     43a:	0501                	addi	a0,a0,0
     43c:	0609                	addi	a2,a2,2
     43e:	00090003          	lb	zero,0(s2)
     442:	0100                	addi	s0,sp,128
     444:	0105                	addi	sp,sp,1
     446:	02090103          	lb	sp,32(s2)
     44a:	0100                	addi	s0,sp,128
     44c:	0305                	addi	t1,t1,1
     44e:	0306                	slli	t1,t1,0x1
     450:	096e                	slli	s2,s2,0x1b
     452:	000e                	c.slli	zero,0x3
     454:	0301                	addi	t1,t1,0
     456:	0901                	addi	s2,s2,0
     458:	000c                	.2byte	0xc
     45a:	0501                	addi	a0,a0,0
     45c:	0304                	addi	s1,sp,384
     45e:	0901                	addi	s2,s2,0
     460:	000c                	.2byte	0xc
     462:	0501                	addi	a0,a0,0
     464:	0302                	c.slli64	t1
     466:	7ee5                	lui	t4,0xffff9
     468:	0009                	c.nop	2
     46a:	0100                	addi	s0,sp,128
     46c:	00090103          	lb	sp,0(s2)
     470:	0100                	addi	s0,sp,128
     472:	1d05                	addi	s10,s10,-31
     474:	0306                	slli	t1,t1,0x1
     476:	0900                	addi	s0,sp,144
     478:	0000                	unimp
     47a:	0301                	addi	t1,t1,0
     47c:	0901                	addi	s2,s2,0
     47e:	0004                	.2byte	0x4
     480:	0301                	addi	t1,t1,0
     482:	097f                	.2byte	0x97f
     484:	0002                	c.slli64	zero
     486:	0501                	addi	a0,a0,0
     488:	0602                	c.slli64	a2
     48a:	04090103          	lb	sp,64(s2)
     48e:	0100                	addi	s0,sp,128
     490:	1d05                	addi	s10,s10,-31
     492:	0306                	slli	t1,t1,0x1
     494:	094e                	slli	s2,s2,0x13
     496:	0000                	unimp
     498:	0301                	addi	t1,t1,0
     49a:	0932                	slli	s2,s2,0xc
     49c:	0004                	.2byte	0x4
     49e:	0501                	addi	a0,a0,0
     4a0:	0602                	c.slli64	a2
     4a2:	02090103          	lb	sp,32(s2)
     4a6:	0100                	addi	s0,sp,128
     4a8:	1105                	addi	sp,sp,-31
     4aa:	00090003          	lb	zero,0(s2)
     4ae:	0100                	addi	s0,sp,128
     4b0:	1d05                	addi	s10,s10,-31
     4b2:	0306                	slli	t1,t1,0x1
     4b4:	094d                	addi	s2,s2,19
     4b6:	0000                	unimp
     4b8:	0301                	addi	t1,t1,0
     4ba:	0932                	slli	s2,s2,0xc
     4bc:	0004                	.2byte	0x4
     4be:	0301                	addi	t1,t1,0
     4c0:	094e                	slli	s2,s2,0x13
     4c2:	0002                	c.slli64	zero
     4c4:	0501                	addi	a0,a0,0
     4c6:	34030603          	lb	a2,832(t1)
     4ca:	0409                	addi	s0,s0,2
     4cc:	0100                	addi	s0,sp,128
     4ce:	0205                	addi	tp,tp,1 # 1 <_prog_start-0x40001fff>
     4d0:	00095503          	lhu	a0,0(s2)
     4d4:	0100                	addi	s0,sp,128
     4d6:	00097503          	.4byte	0x97503
     4da:	0100                	addi	s0,sp,128
     4dc:	00090203          	lb	tp,0(s2)
     4e0:	0100                	addi	s0,sp,128
     4e2:	1d05                	addi	s10,s10,-31
     4e4:	0306                	slli	t1,t1,0x1
     4e6:	0900                	addi	s0,sp,144
     4e8:	0000                	unimp
     4ea:	0501                	addi	a0,a0,0
     4ec:	0602                	c.slli64	a2
     4ee:	02090103          	lb	sp,32(s2)
     4f2:	0100                	addi	s0,sp,128
     4f4:	0305                	addi	t1,t1,1
     4f6:	00090103          	lb	sp,0(s2)
     4fa:	0100                	addi	s0,sp,128
     4fc:	0705                	addi	a4,a4,1
     4fe:	0306                	slli	t1,t1,0x1
     500:	0900                	addi	s0,sp,144
     502:	0000                	unimp
     504:	0501                	addi	a0,a0,0
     506:	060d                	addi	a2,a2,3
     508:	02090103          	lb	sp,32(s2)
     50c:	0100                	addi	s0,sp,128
     50e:	0205                	addi	tp,tp,1 # 1 <_prog_start-0x40001fff>
     510:	04090103          	lb	sp,64(s2)
     514:	0100                	addi	s0,sp,128
     516:	1705                	addi	a4,a4,-31
     518:	00092f03          	lw	t5,0(s2)
     51c:	0100                	addi	s0,sp,128
     51e:	1105                	addi	sp,sp,-31
     520:	00090003          	lb	zero,0(s2)
     524:	0100                	addi	s0,sp,128
     526:	0205                	addi	tp,tp,1 # 1 <_prog_start-0x40001fff>
     528:	04090303          	lb	t1,64(s2)
     52c:	0100                	addi	s0,sp,128
     52e:	0306                	slli	t1,t1,0x1
     530:	00000907          	.4byte	0x907
     534:	0501                	addi	a0,a0,0
     536:	031d                	addi	t1,t1,7
     538:	0979                	addi	s2,s2,30
     53a:	0008                	.2byte	0x8
     53c:	0501                	addi	a0,a0,0
     53e:	0604                	addi	s1,sp,768
     540:	09019603          	lh	a2,144(gp)
     544:	0004                	.2byte	0x4
     546:	0501                	addi	a0,a0,0
     548:	0302                	c.slli64	t1
     54a:	7ef0                	ld	a2,248(a3)
     54c:	0009                	c.nop	2
     54e:	0100                	addi	s0,sp,128
     550:	00090103          	lb	sp,0(s2)
     554:	0100                	addi	s0,sp,128
     556:	04090103          	lb	sp,64(s2)
     55a:	0100                	addi	s0,sp,128
     55c:	0805                	addi	a6,a6,1
     55e:	0306                	slli	t1,t1,0x1
     560:	0900                	addi	s0,sp,144
     562:	0000                	unimp
     564:	0501                	addi	a0,a0,0
     566:	0602                	c.slli64	a2
     568:	0e090103          	lb	sp,224(s2)
     56c:	0100                	addi	s0,sp,128
     56e:	00096a03          	lwu	s4,0(s2)
     572:	0100                	addi	s0,sp,128
     574:	00096003          	lwu	zero,0(s2)
     578:	0100                	addi	s0,sp,128
     57a:	00097503          	.4byte	0x97503
     57e:	0100                	addi	s0,sp,128
     580:	00090203          	lb	tp,0(s2)
     584:	0100                	addi	s0,sp,128
     586:	1d05                	addi	s10,s10,-31
     588:	0306                	slli	t1,t1,0x1
     58a:	0900                	addi	s0,sp,144
     58c:	0000                	unimp
     58e:	0501                	addi	a0,a0,0
     590:	09020307          	.4byte	0x9020307
     594:	0006                	c.slli	zero,0x1
     596:	0501                	addi	a0,a0,0
     598:	0602                	c.slli64	a2
     59a:	04097f03          	.4byte	0x4097f03
     59e:	0100                	addi	s0,sp,128
     5a0:	0305                	addi	t1,t1,1
     5a2:	00090103          	lb	sp,0(s2)
     5a6:	0100                	addi	s0,sp,128
     5a8:	0705                	addi	a4,a4,1
     5aa:	0306                	slli	t1,t1,0x1
     5ac:	0900                	addi	s0,sp,144
     5ae:	0000                	unimp
     5b0:	0501                	addi	a0,a0,0
     5b2:	060d                	addi	a2,a2,3
     5b4:	02090103          	lb	sp,32(s2)
     5b8:	0100                	addi	s0,sp,128
     5ba:	0205                	addi	tp,tp,1 # 1 <_prog_start-0x40001fff>
     5bc:	04090103          	lb	sp,64(s2)
     5c0:	0100                	addi	s0,sp,128
     5c2:	00092603          	lw	a2,0(s2)
     5c6:	0100                	addi	s0,sp,128
     5c8:	1d05                	addi	s10,s10,-31
     5ca:	0306                	slli	t1,t1,0x1
     5cc:	0900                	addi	s0,sp,144
     5ce:	0000                	unimp
     5d0:	0501                	addi	a0,a0,0
     5d2:	0602                	c.slli64	a2
     5d4:	04091603          	lh	a2,64(s2)
     5d8:	0100                	addi	s0,sp,128
     5da:	0705                	addi	a4,a4,1
     5dc:	0306                	slli	t1,t1,0x1
     5de:	018c                	addi	a1,sp,192
     5e0:	0009                	c.nop	2
     5e2:	0100                	addi	s0,sp,128
     5e4:	0205                	addi	tp,tp,1 # 1 <_prog_start-0x40001fff>
     5e6:	0306                	slli	t1,t1,0x1
     5e8:	7efa                	ld	t4,440(sp)
     5ea:	0609                	addi	a2,a2,2
     5ec:	0100                	addi	s0,sp,128
     5ee:	00090103          	lb	sp,0(s2)
     5f2:	0100                	addi	s0,sp,128
     5f4:	0c090103          	lb	sp,192(s2)
     5f8:	0100                	addi	s0,sp,128
     5fa:	0805                	addi	a6,a6,1
     5fc:	0306                	slli	t1,t1,0x1
     5fe:	0900                	addi	s0,sp,144
     600:	0000                	unimp
     602:	0501                	addi	a0,a0,0
     604:	09000327          	.4byte	0x9000327
     608:	0010                	.2byte	0x10
     60a:	0501                	addi	a0,a0,0
     60c:	031d                	addi	t1,t1,7
     60e:	7fb8                	ld	a4,120(a5)
     610:	0609                	addi	a2,a2,2
     612:	0100                	addi	s0,sp,128
     614:	2705                	addiw	a4,a4,1
     616:	0900c803          	lbu	a6,144(ra)
     61a:	0004                	.2byte	0x4
     61c:	0501                	addi	a0,a0,0
     61e:	0602                	c.slli64	a2
     620:	04090103          	lb	sp,64(s2)
     624:	0100                	addi	s0,sp,128
     626:	00094003          	lbu	zero,0(s2)
     62a:	0100                	addi	s0,sp,128
     62c:	00097503          	.4byte	0x97503
     630:	0100                	addi	s0,sp,128
     632:	00090203          	lb	tp,0(s2)
     636:	0100                	addi	s0,sp,128
     638:	1d05                	addi	s10,s10,-31
     63a:	0306                	slli	t1,t1,0x1
     63c:	0900                	addi	s0,sp,144
     63e:	0000                	unimp
     640:	0501                	addi	a0,a0,0
     642:	09020307          	.4byte	0x9020307
     646:	0002                	c.slli64	zero
     648:	0501                	addi	a0,a0,0
     64a:	0602                	c.slli64	a2
     64c:	04097f03          	.4byte	0x4097f03
     650:	0100                	addi	s0,sp,128
     652:	0305                	addi	t1,t1,1
     654:	00090103          	lb	sp,0(s2)
     658:	0100                	addi	s0,sp,128
     65a:	0705                	addi	a4,a4,1
     65c:	0306                	slli	t1,t1,0x1
     65e:	0900                	addi	s0,sp,144
     660:	0000                	unimp
     662:	0501                	addi	a0,a0,0
     664:	060d                	addi	a2,a2,3
     666:	02090103          	lb	sp,32(s2)
     66a:	0100                	addi	s0,sp,128
     66c:	0205                	addi	tp,tp,1 # 1 <_prog_start-0x40001fff>
     66e:	04090103          	lb	sp,64(s2)
     672:	0100                	addi	s0,sp,128
     674:	0900c603          	lbu	a2,144(ra)
     678:	0000                	unimp
     67a:	0301                	addi	t1,t1,0
     67c:	00097fbf 75030100 	.8byte	0x7503010000097fbf
     684:	0009                	c.nop	2
     686:	0100                	addi	s0,sp,128
     688:	00090203          	lb	tp,0(s2)
     68c:	0100                	addi	s0,sp,128
     68e:	1d05                	addi	s10,s10,-31
     690:	0306                	slli	t1,t1,0x1
     692:	0900                	addi	s0,sp,144
     694:	0000                	unimp
     696:	0501                	addi	a0,a0,0
     698:	09020307          	.4byte	0x9020307
     69c:	0006                	c.slli	zero,0x1
     69e:	0501                	addi	a0,a0,0
     6a0:	0602                	c.slli64	a2
     6a2:	04097f03          	.4byte	0x4097f03
     6a6:	0100                	addi	s0,sp,128
     6a8:	0305                	addi	t1,t1,1
     6aa:	00090103          	lb	sp,0(s2)
     6ae:	0100                	addi	s0,sp,128
     6b0:	0705                	addi	a4,a4,1
     6b2:	0306                	slli	t1,t1,0x1
     6b4:	0900                	addi	s0,sp,144
     6b6:	0000                	unimp
     6b8:	0501                	addi	a0,a0,0
     6ba:	060d                	addi	a2,a2,3
     6bc:	02090103          	lb	sp,32(s2)
     6c0:	0100                	addi	s0,sp,128
     6c2:	0205                	addi	tp,tp,1 # 1 <_prog_start-0x40001fff>
     6c4:	04090103          	lb	sp,64(s2)
     6c8:	0100                	addi	s0,sp,128
     6ca:	0900c703          	lbu	a4,144(ra)
     6ce:	0000                	unimp
     6d0:	0301                	addi	t1,t1,0
     6d2:	7fbe                	ld	t6,488(sp)
     6d4:	0009                	c.nop	2
     6d6:	0100                	addi	s0,sp,128
     6d8:	00097503          	.4byte	0x97503
     6dc:	0100                	addi	s0,sp,128
     6de:	00090203          	lb	tp,0(s2)
     6e2:	0100                	addi	s0,sp,128
     6e4:	1d05                	addi	s10,s10,-31
     6e6:	0306                	slli	t1,t1,0x1
     6e8:	0900                	addi	s0,sp,144
     6ea:	0000                	unimp
     6ec:	0501                	addi	a0,a0,0
     6ee:	09020307          	.4byte	0x9020307
     6f2:	0006                	c.slli	zero,0x1
     6f4:	0501                	addi	a0,a0,0
     6f6:	0602                	c.slli64	a2
     6f8:	04097f03          	.4byte	0x4097f03
     6fc:	0100                	addi	s0,sp,128
     6fe:	0305                	addi	t1,t1,1
     700:	00090103          	lb	sp,0(s2)
     704:	0100                	addi	s0,sp,128
     706:	0705                	addi	a4,a4,1
     708:	0306                	slli	t1,t1,0x1
     70a:	0900                	addi	s0,sp,144
     70c:	0000                	unimp
     70e:	0501                	addi	a0,a0,0
     710:	060d                	addi	a2,a2,3
     712:	06090103          	lb	sp,96(s2)
     716:	0100                	addi	s0,sp,128
     718:	0205                	addi	tp,tp,1 # 1 <_prog_start-0x40001fff>
     71a:	04090103          	lb	sp,64(s2)
     71e:	0100                	addi	s0,sp,128
     720:	1c05                	addi	s8,s8,-31
     722:	0306                	slli	t1,t1,0x1
     724:	000900c7          	fmsub.s	ft1,fs2,ft0,ft0,rne
     728:	0100                	addi	s0,sp,128
     72a:	0205                	addi	tp,tp,1 # 1 <_prog_start-0x40001fff>
     72c:	0306                	slli	t1,t1,0x1
     72e:	0901                	addi	s2,s2,0
     730:	000a                	c.slli	zero,0x2
     732:	0301                	addi	t1,t1,0
     734:	7fbd                	lui	t6,0xfffef
     736:	0009                	c.nop	2
     738:	0100                	addi	s0,sp,128
     73a:	00097503          	.4byte	0x97503
     73e:	0100                	addi	s0,sp,128
     740:	00090203          	lb	tp,0(s2)
     744:	0100                	addi	s0,sp,128
     746:	1d05                	addi	s10,s10,-31
     748:	0306                	slli	t1,t1,0x1
     74a:	0900                	addi	s0,sp,144
     74c:	0000                	unimp
     74e:	0501                	addi	a0,a0,0
     750:	09020307          	.4byte	0x9020307
     754:	0006                	c.slli	zero,0x1
     756:	0501                	addi	a0,a0,0
     758:	0602                	c.slli64	a2
     75a:	04097f03          	.4byte	0x4097f03
     75e:	0100                	addi	s0,sp,128
     760:	0305                	addi	t1,t1,1
     762:	00090103          	lb	sp,0(s2)
     766:	0100                	addi	s0,sp,128
     768:	0705                	addi	a4,a4,1
     76a:	0306                	slli	t1,t1,0x1
     76c:	0900                	addi	s0,sp,144
     76e:	0000                	unimp
     770:	0501                	addi	a0,a0,0
     772:	060d                	addi	a2,a2,3
     774:	06090103          	lb	sp,96(s2)
     778:	0100                	addi	s0,sp,128
     77a:	0205                	addi	tp,tp,1 # 1 <_prog_start-0x40001fff>
     77c:	04090103          	lb	sp,64(s2)
     780:	0100                	addi	s0,sp,128
     782:	1405                	addi	s0,s0,-31
     784:	0306                	slli	t1,t1,0x1
     786:	00c8                	addi	a0,sp,68
     788:	0009                	c.nop	2
     78a:	0100                	addi	s0,sp,128
     78c:	1d05                	addi	s10,s10,-31
     78e:	097fb403          	ld	s0,151(t6) # fffffffffffef097 <_sp+0xffffffff8ffee097>
     792:	0012                	c.slli	zero,0x4
     794:	0501                	addi	a0,a0,0
     796:	0602                	c.slli64	a2
     798:	0900cd03          	lbu	s10,144(ra)
     79c:	0008                	.2byte	0x8
     79e:	0301                	addi	t1,t1,0
     7a0:	095c                	addi	a5,sp,148
     7a2:	0000                	unimp
     7a4:	0301                	addi	t1,t1,0
     7a6:	0960                	addi	s0,sp,156
     7a8:	0000                	unimp
     7aa:	0301                	addi	t1,t1,0
     7ac:	0975                	addi	s2,s2,29
     7ae:	0000                	unimp
     7b0:	0301                	addi	t1,t1,0
     7b2:	0902                	c.slli64	s2
     7b4:	0000                	unimp
     7b6:	0501                	addi	a0,a0,0
     7b8:	061d                	addi	a2,a2,7
     7ba:	00090003          	lb	zero,0(s2)
     7be:	0100                	addi	s0,sp,128
     7c0:	0705                	addi	a4,a4,1
     7c2:	02090203          	lb	tp,32(s2)
     7c6:	0100                	addi	s0,sp,128
     7c8:	0205                	addi	tp,tp,1 # 1 <_prog_start-0x40001fff>
     7ca:	0306                	slli	t1,t1,0x1
     7cc:	097f                	.2byte	0x97f
     7ce:	0004                	.2byte	0x4
     7d0:	0501                	addi	a0,a0,0
     7d2:	09010303          	lb	t1,144(sp)
     7d6:	0000                	unimp
     7d8:	0501                	addi	a0,a0,0
     7da:	00030607          	.4byte	0x30607
     7de:	0009                	c.nop	2
     7e0:	0100                	addi	s0,sp,128
     7e2:	0d05                	addi	s10,s10,1
     7e4:	0306                	slli	t1,t1,0x1
     7e6:	0901                	addi	s2,s2,0
     7e8:	0002                	c.slli64	zero
     7ea:	0501                	addi	a0,a0,0
     7ec:	0302                	c.slli64	t1
     7ee:	0901                	addi	s2,s2,0
     7f0:	0004                	.2byte	0x4
     7f2:	0301                	addi	t1,t1,0
     7f4:	0926                	slli	s2,s2,0x9
     7f6:	0000                	unimp
     7f8:	0501                	addi	a0,a0,0
     7fa:	061d                	addi	a2,a2,7
     7fc:	00090003          	lb	zero,0(s2)
     800:	0100                	addi	s0,sp,128
     802:	0205                	addi	tp,tp,1 # 1 <_prog_start-0x40001fff>
     804:	0306                	slli	t1,t1,0x1
     806:	0924                	addi	s1,sp,152
     808:	0004                	.2byte	0x4
     80a:	0501                	addi	a0,a0,0
     80c:	0612                	slli	a2,a2,0x4
     80e:	0900fe03          	.4byte	0x900fe03
     812:	0000                	unimp
     814:	0501                	addi	a0,a0,0
     816:	0605                	addi	a2,a2,1
     818:	02090603          	lb	a2,32(s2)
     81c:	0100                	addi	s0,sp,128
     81e:	0c090103          	lb	sp,192(s2)
     822:	0100                	addi	s0,sp,128
     824:	0c05                	addi	s8,s8,1
     826:	0306                	slli	t1,t1,0x1
     828:	0900                	addi	s0,sp,144
     82a:	0000                	unimp
     82c:	0501                	addi	a0,a0,0
     82e:	0602                	c.slli64	a2
     830:	097f8803          	lb	a6,151(t6)
     834:	0004                	.2byte	0x4
     836:	0301                	addi	t1,t1,0
     838:	0901                	addi	s2,s2,0
     83a:	0000                	unimp
     83c:	0501                	addi	a0,a0,0
     83e:	061d                	addi	a2,a2,7
     840:	097fa403          	lw	s0,151(t6)
     844:	000c                	.2byte	0xc
     846:	0501                	addi	a0,a0,0
     848:	030d                	addi	t1,t1,3
     84a:	00e0                	addi	s0,sp,76
     84c:	0809                	addi	a6,a6,2
     84e:	0100                	addi	s0,sp,128
     850:	0205                	addi	tp,tp,1 # 1 <_prog_start-0x40001fff>
     852:	0306                	slli	t1,t1,0x1
     854:	097d                	addi	s2,s2,31
     856:	0002                	c.slli64	zero
     858:	0501                	addi	a0,a0,0
     85a:	09010303          	lb	t1,144(sp)
     85e:	0000                	unimp
     860:	0501                	addi	a0,a0,0
     862:	0302                	c.slli64	t1
     864:	0976                	slli	s2,s2,0x1d
     866:	0000                	unimp
     868:	0301                	addi	t1,t1,0
     86a:	0901                	addi	s2,s2,0
     86c:	000e                	c.slli	zero,0x3
     86e:	0301                	addi	t1,t1,0
     870:	0954                	addi	a3,sp,148
     872:	0000                	unimp
     874:	0301                	addi	t1,t1,0
     876:	0960                	addi	s0,sp,156
     878:	0000                	unimp
     87a:	0301                	addi	t1,t1,0
     87c:	0975                	addi	s2,s2,29
     87e:	0000                	unimp
     880:	0301                	addi	t1,t1,0
     882:	0902                	c.slli64	s2
     884:	0000                	unimp
     886:	0501                	addi	a0,a0,0
     888:	061d                	addi	a2,a2,7
     88a:	00090003          	lb	zero,0(s2)
     88e:	0100                	addi	s0,sp,128
     890:	0205                	addi	tp,tp,1 # 1 <_prog_start-0x40001fff>
     892:	0306                	slli	t1,t1,0x1
     894:	0901                	addi	s2,s2,0
     896:	0004                	.2byte	0x4
     898:	0501                	addi	a0,a0,0
     89a:	09010303          	lb	t1,144(sp)
     89e:	0000                	unimp
     8a0:	0501                	addi	a0,a0,0
     8a2:	00030607          	.4byte	0x30607
     8a6:	0009                	c.nop	2
     8a8:	0100                	addi	s0,sp,128
     8aa:	0d05                	addi	s10,s10,1
     8ac:	0306                	slli	t1,t1,0x1
     8ae:	0901                	addi	s2,s2,0
     8b0:	0002                	c.slli64	zero
     8b2:	0501                	addi	a0,a0,0
     8b4:	0302                	c.slli64	t1
     8b6:	0901                	addi	s2,s2,0
     8b8:	0004                	.2byte	0x4
     8ba:	0301                	addi	t1,t1,0
     8bc:	0926                	slli	s2,s2,0x9
     8be:	0000                	unimp
     8c0:	0501                	addi	a0,a0,0
     8c2:	061d                	addi	a2,a2,7
     8c4:	00090003          	lb	zero,0(s2)
     8c8:	0100                	addi	s0,sp,128
     8ca:	0305                	addi	t1,t1,1
     8cc:	0306                	slli	t1,t1,0x1
     8ce:	0935                	addi	s2,s2,13
     8d0:	0004                	.2byte	0x4
     8d2:	0501                	addi	a0,a0,0
     8d4:	00030607          	.4byte	0x30607
     8d8:	0009                	c.nop	2
     8da:	0100                	addi	s0,sp,128
     8dc:	0d05                	addi	s10,s10,1
     8de:	0306                	slli	t1,t1,0x1
     8e0:	0901                	addi	s2,s2,0
     8e2:	0010                	.2byte	0x10
     8e4:	0501                	addi	a0,a0,0
     8e6:	0302                	c.slli64	t1
     8e8:	0901                	addi	s2,s2,0
     8ea:	0004                	.2byte	0x4
     8ec:	0501                	addi	a0,a0,0
     8ee:	ec03060f          	.4byte	0xec03060f
     8f2:	0900                	addi	s0,sp,144
     8f4:	0000                	unimp
     8f6:	0501                	addi	a0,a0,0
     8f8:	0602                	c.slli64	a2
     8fa:	097f9a03          	lh	s4,151(t6)
     8fe:	0002                	c.slli64	zero
     900:	0301                	addi	t1,t1,0
     902:	0901                	addi	s2,s2,0
     904:	0000                	unimp
     906:	0301                	addi	t1,t1,0
     908:	0901                	addi	s2,s2,0
     90a:	000c                	.2byte	0xc
     90c:	0501                	addi	a0,a0,0
     90e:	0608                	addi	a0,sp,768
     910:	00090003          	lb	zero,0(s2)
     914:	0100                	addi	s0,sp,128
     916:	1d05                	addi	s10,s10,-31
     918:	097f9703          	lh	a4,151(t6)
     91c:	000e                	c.slli	zero,0x3
     91e:	0501                	addi	a0,a0,0
     920:	031e                	slli	t1,t1,0x7
     922:	00e9                	addi	ra,ra,26
     924:	0409                	addi	s0,s0,2
     926:	0100                	addi	s0,sp,128
     928:	0205                	addi	tp,tp,1 # 1 <_prog_start-0x40001fff>
     92a:	0306                	slli	t1,t1,0x1
     92c:	0901                	addi	s2,s2,0
     92e:	0004                	.2byte	0x4
     930:	0301                	addi	t1,t1,0
     932:	7f9f 0009 0100      	.byte	0x9f, 0x7f, 0x09, 0x00, 0x00, 0x01
     938:	00097503          	.4byte	0x97503
     93c:	0100                	addi	s0,sp,128
     93e:	00090203          	lb	tp,0(s2)
     942:	0100                	addi	s0,sp,128
     944:	1d05                	addi	s10,s10,-31
     946:	0306                	slli	t1,t1,0x1
     948:	0900                	addi	s0,sp,144
     94a:	0000                	unimp
     94c:	0501                	addi	a0,a0,0
     94e:	09020307          	.4byte	0x9020307
     952:	0002                	c.slli64	zero
     954:	0501                	addi	a0,a0,0
     956:	0602                	c.slli64	a2
     958:	04097f03          	.4byte	0x4097f03
     95c:	0100                	addi	s0,sp,128
     95e:	0305                	addi	t1,t1,1
     960:	00090103          	lb	sp,0(s2)
     964:	0100                	addi	s0,sp,128
     966:	0705                	addi	a4,a4,1
     968:	0306                	slli	t1,t1,0x1
     96a:	0900                	addi	s0,sp,144
     96c:	0000                	unimp
     96e:	0501                	addi	a0,a0,0
     970:	060d                	addi	a2,a2,3
     972:	06090103          	lb	sp,96(s2)
     976:	0100                	addi	s0,sp,128
     978:	0205                	addi	tp,tp,1 # 1 <_prog_start-0x40001fff>
     97a:	04090103          	lb	sp,64(s2)
     97e:	0100                	addi	s0,sp,128
     980:	1d05                	addi	s10,s10,-31
     982:	0306                	slli	t1,t1,0x1
     984:	00e6                	slli	ra,ra,0x19
     986:	0009                	c.nop	2
     988:	0100                	addi	s0,sp,128
     98a:	0205                	addi	tp,tp,1 # 1 <_prog_start-0x40001fff>
     98c:	0306                	slli	t1,t1,0x1
     98e:	0901                	addi	s2,s2,0
     990:	000c                	.2byte	0xc
     992:	0301                	addi	t1,t1,0
     994:	7f9e                	ld	t6,480(sp)
     996:	0009                	c.nop	2
     998:	0100                	addi	s0,sp,128
     99a:	00097503          	.4byte	0x97503
     99e:	0100                	addi	s0,sp,128
     9a0:	00090203          	lb	tp,0(s2)
     9a4:	0100                	addi	s0,sp,128
     9a6:	1d05                	addi	s10,s10,-31
     9a8:	0306                	slli	t1,t1,0x1
     9aa:	0900                	addi	s0,sp,144
     9ac:	0000                	unimp
     9ae:	0501                	addi	a0,a0,0
     9b0:	09020307          	.4byte	0x9020307
     9b4:	0006                	c.slli	zero,0x1
     9b6:	0501                	addi	a0,a0,0
     9b8:	0602                	c.slli64	a2
     9ba:	04097f03          	.4byte	0x4097f03
     9be:	0100                	addi	s0,sp,128
     9c0:	0305                	addi	t1,t1,1
     9c2:	00090103          	lb	sp,0(s2)
     9c6:	0100                	addi	s0,sp,128
     9c8:	0705                	addi	a4,a4,1
     9ca:	0306                	slli	t1,t1,0x1
     9cc:	0900                	addi	s0,sp,144
     9ce:	0000                	unimp
     9d0:	0501                	addi	a0,a0,0
     9d2:	060d                	addi	a2,a2,3
     9d4:	02090103          	lb	sp,32(s2)
     9d8:	0100                	addi	s0,sp,128
     9da:	0205                	addi	tp,tp,1 # 1 <_prog_start-0x40001fff>
     9dc:	04090103          	lb	sp,64(s2)
     9e0:	0100                	addi	s0,sp,128
     9e2:	0900e803          	lwu	a6,144(ra)
     9e6:	0000                	unimp
     9e8:	0301                	addi	t1,t1,0
     9ea:	7f9d                	lui	t6,0xfffe7
     9ec:	0009                	c.nop	2
     9ee:	0100                	addi	s0,sp,128
     9f0:	00097503          	.4byte	0x97503
     9f4:	0100                	addi	s0,sp,128
     9f6:	00090203          	lb	tp,0(s2)
     9fa:	0100                	addi	s0,sp,128
     9fc:	1d05                	addi	s10,s10,-31
     9fe:	0306                	slli	t1,t1,0x1
     a00:	0900                	addi	s0,sp,144
     a02:	0000                	unimp
     a04:	0501                	addi	a0,a0,0
     a06:	09020307          	.4byte	0x9020307
     a0a:	0006                	c.slli	zero,0x1
     a0c:	0501                	addi	a0,a0,0
     a0e:	0602                	c.slli64	a2
     a10:	04097f03          	.4byte	0x4097f03
     a14:	0100                	addi	s0,sp,128
     a16:	0305                	addi	t1,t1,1
     a18:	00090103          	lb	sp,0(s2)
     a1c:	0100                	addi	s0,sp,128
     a1e:	0705                	addi	a4,a4,1
     a20:	0306                	slli	t1,t1,0x1
     a22:	0900                	addi	s0,sp,144
     a24:	0000                	unimp
     a26:	0501                	addi	a0,a0,0
     a28:	060d                	addi	a2,a2,3
     a2a:	02090103          	lb	sp,32(s2)
     a2e:	0100                	addi	s0,sp,128
     a30:	0205                	addi	tp,tp,1 # 1 <_prog_start-0x40001fff>
     a32:	04090103          	lb	sp,64(s2)
     a36:	0100                	addi	s0,sp,128
     a38:	0900e903          	lwu	s2,144(ra)
     a3c:	0000                	unimp
     a3e:	0301                	addi	t1,t1,0
     a40:	7f9c                	ld	a5,56(a5)
     a42:	0009                	c.nop	2
     a44:	0100                	addi	s0,sp,128
     a46:	00097503          	.4byte	0x97503
     a4a:	0100                	addi	s0,sp,128
     a4c:	00090203          	lb	tp,0(s2)
     a50:	0100                	addi	s0,sp,128
     a52:	1d05                	addi	s10,s10,-31
     a54:	0306                	slli	t1,t1,0x1
     a56:	0900                	addi	s0,sp,144
     a58:	0000                	unimp
     a5a:	0501                	addi	a0,a0,0
     a5c:	09020307          	.4byte	0x9020307
     a60:	0006                	c.slli	zero,0x1
     a62:	0501                	addi	a0,a0,0
     a64:	0602                	c.slli64	a2
     a66:	04097f03          	.4byte	0x4097f03
     a6a:	0100                	addi	s0,sp,128
     a6c:	0305                	addi	t1,t1,1
     a6e:	00090103          	lb	sp,0(s2)
     a72:	0100                	addi	s0,sp,128
     a74:	0705                	addi	a4,a4,1
     a76:	0306                	slli	t1,t1,0x1
     a78:	0900                	addi	s0,sp,144
     a7a:	0000                	unimp
     a7c:	0501                	addi	a0,a0,0
     a7e:	060d                	addi	a2,a2,3
     a80:	02090103          	lb	sp,32(s2)
     a84:	0100                	addi	s0,sp,128
     a86:	0205                	addi	tp,tp,1 # 1 <_prog_start-0x40001fff>
     a88:	04090103          	lb	sp,64(s2)
     a8c:	0100                	addi	s0,sp,128
     a8e:	0900ea03          	lwu	s4,144(ra)
     a92:	0000                	unimp
     a94:	0301                	addi	t1,t1,0
     a96:	00097fbb          	.4byte	0x97fbb
     a9a:	0100                	addi	s0,sp,128
     a9c:	00096003          	lwu	zero,0(s2)
     aa0:	0100                	addi	s0,sp,128
     aa2:	00097503          	.4byte	0x97503
     aa6:	0100                	addi	s0,sp,128
     aa8:	00090203          	lb	tp,0(s2)
     aac:	0100                	addi	s0,sp,128
     aae:	1d05                	addi	s10,s10,-31
     ab0:	0306                	slli	t1,t1,0x1
     ab2:	0900                	addi	s0,sp,144
     ab4:	0000                	unimp
     ab6:	0501                	addi	a0,a0,0
     ab8:	09020307          	.4byte	0x9020307
     abc:	0006                	c.slli	zero,0x1
     abe:	0501                	addi	a0,a0,0
     ac0:	0602                	c.slli64	a2
     ac2:	04097f03          	.4byte	0x4097f03
     ac6:	0100                	addi	s0,sp,128
     ac8:	0305                	addi	t1,t1,1
     aca:	00090103          	lb	sp,0(s2)
     ace:	0100                	addi	s0,sp,128
     ad0:	0705                	addi	a4,a4,1
     ad2:	0306                	slli	t1,t1,0x1
     ad4:	0900                	addi	s0,sp,144
     ad6:	0000                	unimp
     ad8:	0501                	addi	a0,a0,0
     ada:	060d                	addi	a2,a2,3
     adc:	02090103          	lb	sp,32(s2)
     ae0:	0100                	addi	s0,sp,128
     ae2:	0205                	addi	tp,tp,1 # 1 <_prog_start-0x40001fff>
     ae4:	04090103          	lb	sp,64(s2)
     ae8:	0100                	addi	s0,sp,128
     aea:	00092603          	lw	a2,0(s2)
     aee:	0100                	addi	s0,sp,128
     af0:	1d05                	addi	s10,s10,-31
     af2:	0306                	slli	t1,t1,0x1
     af4:	0900                	addi	s0,sp,144
     af6:	0000                	unimp
     af8:	0501                	addi	a0,a0,0
     afa:	0602                	c.slli64	a2
     afc:	0900c503          	lbu	a0,144(ra)
     b00:	0004                	.2byte	0x4
     b02:	0501                	addi	a0,a0,0
     b04:	0611                	addi	a2,a2,4
     b06:	0900df03          	lhu	t5,144(ra)
     b0a:	0000                	unimp
     b0c:	0501                	addi	a0,a0,0
     b0e:	0602                	c.slli64	a2
     b10:	097fa703          	lw	a4,151(t6) # fffffffffffe7097 <_sp+0xffffffff8ffe6097>
     b14:	0002                	c.slli64	zero
     b16:	0301                	addi	t1,t1,0
     b18:	0901                	addi	s2,s2,0
     b1a:	0000                	unimp
     b1c:	0301                	addi	t1,t1,0
     b1e:	0901                	addi	s2,s2,0
     b20:	000c                	.2byte	0xc
     b22:	0501                	addi	a0,a0,0
     b24:	0608                	addi	a0,sp,768
     b26:	00090003          	lb	zero,0(s2)
     b2a:	0100                	addi	s0,sp,128
     b2c:	1d05                	addi	s10,s10,-31
     b2e:	097f8903          	lb	s2,151(t6)
     b32:	000e                	c.slli	zero,0x3
     b34:	0501                	addi	a0,a0,0
     b36:	0308                	addi	a0,sp,384
     b38:	060900f7          	.4byte	0x60900f7
     b3c:	0100                	addi	s0,sp,128
     b3e:	0205                	addi	tp,tp,1 # 1 <_prog_start-0x40001fff>
     b40:	0306                	slli	t1,t1,0x1
     b42:	0901                	addi	s2,s2,0
     b44:	0002                	c.slli64	zero
     b46:	0301                	addi	t1,t1,0
     b48:	7fb1                	lui	t6,0xfffec
     b4a:	0009                	c.nop	2
     b4c:	0100                	addi	s0,sp,128
     b4e:	00096003          	lwu	zero,0(s2)
     b52:	0100                	addi	s0,sp,128
     b54:	00097503          	.4byte	0x97503
     b58:	0100                	addi	s0,sp,128
     b5a:	00090203          	lb	tp,0(s2)
     b5e:	0100                	addi	s0,sp,128
     b60:	0705                	addi	a4,a4,1
     b62:	0306                	slli	t1,t1,0x1
     b64:	0902                	c.slli64	s2
     b66:	0000                	unimp
     b68:	0501                	addi	a0,a0,0
     b6a:	0602                	c.slli64	a2
     b6c:	04097f03          	.4byte	0x4097f03
     b70:	0100                	addi	s0,sp,128
     b72:	0305                	addi	t1,t1,1
     b74:	00090103          	lb	sp,0(s2)
     b78:	0100                	addi	s0,sp,128
     b7a:	0705                	addi	a4,a4,1
     b7c:	0306                	slli	t1,t1,0x1
     b7e:	0900                	addi	s0,sp,144
     b80:	0000                	unimp
     b82:	0501                	addi	a0,a0,0
     b84:	060d                	addi	a2,a2,3
     b86:	02090103          	lb	sp,32(s2)
     b8a:	0100                	addi	s0,sp,128
     b8c:	0205                	addi	tp,tp,1 # 1 <_prog_start-0x40001fff>
     b8e:	04090103          	lb	sp,64(s2)
     b92:	0100                	addi	s0,sp,128
     b94:	00092603          	lw	a2,0(s2)
     b98:	0100                	addi	s0,sp,128
     b9a:	1d05                	addi	s10,s10,-31
     b9c:	0306                	slli	t1,t1,0x1
     b9e:	0900                	addi	s0,sp,144
     ba0:	0000                	unimp
     ba2:	0501                	addi	a0,a0,0
     ba4:	0602                	c.slli64	a2
     ba6:	0900cf03          	lbu	t5,144(ra)
     baa:	0004                	.2byte	0x4
     bac:	0501                	addi	a0,a0,0
     bae:	0610                	addi	a2,sp,768
     bb0:	0900d603          	lhu	a2,144(ra)
     bb4:	0000                	unimp
     bb6:	0501                	addi	a0,a0,0
     bb8:	0602                	c.slli64	a2
     bba:	097fbe03          	ld	t3,151(t6) # fffffffffffec097 <_sp+0xffffffff8ffeb097>
     bbe:	0004                	.2byte	0x4
     bc0:	0301                	addi	t1,t1,0
     bc2:	0901                	addi	s2,s2,0
     bc4:	0000                	unimp
     bc6:	0301                	addi	t1,t1,0
     bc8:	0901                	addi	s2,s2,0
     bca:	0000                	unimp
     bcc:	0301                	addi	t1,t1,0
     bce:	0902                	c.slli64	s2
     bd0:	0000                	unimp
     bd2:	0301                	addi	t1,t1,0
     bd4:	000c0903          	lb	s2,0(s8)
     bd8:	0301                	addi	t1,t1,0
     bda:	0904                	addi	s1,sp,144
     bdc:	000c                	.2byte	0xc
     bde:	0501                	addi	a0,a0,0
     be0:	0606                	slli	a2,a2,0x1
     be2:	00090203          	lb	tp,0(s2)
     be6:	0100                	addi	s0,sp,128
     be8:	1d05                	addi	s10,s10,-31
     bea:	02097e03          	.4byte	0x2097e03
     bee:	0100                	addi	s0,sp,128
     bf0:	0205                	addi	tp,tp,1 # 1 <_prog_start-0x40001fff>
     bf2:	0306                	slli	t1,t1,0x1
     bf4:	0902                	c.slli64	s2
     bf6:	0004                	.2byte	0x4
     bf8:	0501                	addi	a0,a0,0
     bfa:	0606                	slli	a2,a2,0x1
     bfc:	00090003          	lb	zero,0(s2)
     c00:	0100                	addi	s0,sp,128
     c02:	0505                	addi	a0,a0,1
     c04:	10090003          	lb	zero,256(s2)
     c08:	0100                	addi	s0,sp,128
     c0a:	0f05                	addi	t5,t5,1
     c0c:	04091e03          	lh	t3,64(s2)
     c10:	0100                	addi	s0,sp,128
     c12:	1405                	addi	s0,s0,-31
     c14:	04095503          	lhu	a0,64(s2)
     c18:	0100                	addi	s0,sp,128
     c1a:	1605                	addi	a2,a2,-31
     c1c:	02097403          	.4byte	0x2097403
     c20:	0100                	addi	s0,sp,128
     c22:	0f05                	addi	t5,t5,1
     c24:	02093703          	ld	a4,32(s2)
     c28:	0100                	addi	s0,sp,128
     c2a:	1405                	addi	s0,s0,-31
     c2c:	02095503          	lhu	a0,32(s2)
     c30:	0100                	addi	s0,sp,128
     c32:	1d05                	addi	s10,s10,-31
     c34:	097ef303          	.4byte	0x97ef303
     c38:	0002                	c.slli64	zero
     c3a:	0501                	addi	a0,a0,0
     c3c:	0315                	addi	t1,t1,5
     c3e:	01a4                	addi	s1,sp,200
     c40:	0c09                	addi	s8,s8,2
     c42:	0100                	addi	s0,sp,128
     c44:	0705                	addi	a4,a4,1
     c46:	097ede03          	lhu	t3,151(t4) # ffffffffffff9097 <_sp+0xffffffff8fff8097>
     c4a:	0004                	.2byte	0x4
     c4c:	0501                	addi	a0,a0,0
     c4e:	0316                	slli	t1,t1,0x5
     c50:	00ff                	.2byte	0xff
     c52:	0409                	addi	s0,s0,2
     c54:	0100                	addi	s0,sp,128
     c56:	0f05                	addi	t5,t5,1
     c58:	02093703          	ld	a4,32(s2)
     c5c:	0100                	addi	s0,sp,128
     c5e:	0205                	addi	tp,tp,1 # 1 <_prog_start-0x40001fff>
     c60:	0306                	slli	t1,t1,0x1
     c62:	0966                	slli	s2,s2,0x19
     c64:	0002                	c.slli64	zero
     c66:	0501                	addi	a0,a0,0
     c68:	09010303          	lb	t1,144(sp)
     c6c:	0000                	unimp
     c6e:	0301                	addi	t1,t1,0
     c70:	0901                	addi	s2,s2,0
     c72:	0000                	unimp
     c74:	0301                	addi	t1,t1,0
     c76:	0902                	c.slli64	s2
     c78:	0000                	unimp
     c7a:	0301                	addi	t1,t1,0
     c7c:	0901                	addi	s2,s2,0
     c7e:	0000                	unimp
     c80:	0301                	addi	t1,t1,0
     c82:	0901                	addi	s2,s2,0
     c84:	0000                	unimp
     c86:	0501                	addi	a0,a0,0
     c88:	061d                	addi	a2,a2,7
     c8a:	097edc03          	lhu	s8,151(t4)
     c8e:	0000                	unimp
     c90:	0501                	addi	a0,a0,0
     c92:	0615                	addi	a2,a2,5
     c94:	0901a403          	lw	s0,144(gp)
     c98:	0004                	.2byte	0x4
     c9a:	0501                	addi	a0,a0,0
     c9c:	0302                	c.slli64	t1
     c9e:	7ee5                	lui	t4,0xffff9
     ca0:	0009                	c.nop	2
     ca2:	0100                	addi	s0,sp,128
     ca4:	00097503          	.4byte	0x97503
     ca8:	0100                	addi	s0,sp,128
     caa:	00090203          	lb	tp,0(s2)
     cae:	0100                	addi	s0,sp,128
     cb0:	1d05                	addi	s10,s10,-31
     cb2:	0306                	slli	t1,t1,0x1
     cb4:	0900                	addi	s0,sp,144
     cb6:	0000                	unimp
     cb8:	0501                	addi	a0,a0,0
     cba:	0602                	c.slli64	a2
     cbc:	02090103          	lb	sp,32(s2)
     cc0:	0100                	addi	s0,sp,128
     cc2:	0305                	addi	t1,t1,1
     cc4:	00090103          	lb	sp,0(s2)
     cc8:	0100                	addi	s0,sp,128
     cca:	0705                	addi	a4,a4,1
     ccc:	0306                	slli	t1,t1,0x1
     cce:	0900                	addi	s0,sp,144
     cd0:	0000                	unimp
     cd2:	0501                	addi	a0,a0,0
     cd4:	060d                	addi	a2,a2,3
     cd6:	06090103          	lb	sp,96(s2)
     cda:	0100                	addi	s0,sp,128
     cdc:	0205                	addi	tp,tp,1 # 1 <_prog_start-0x40001fff>
     cde:	04090103          	lb	sp,64(s2)
     ce2:	0100                	addi	s0,sp,128
     ce4:	1505                	addi	a0,a0,-31
     ce6:	0306                	slli	t1,t1,0x1
     ce8:	01a0                	addi	s0,sp,200
     cea:	0009                	c.nop	2
     cec:	0100                	addi	s0,sp,128
     cee:	0705                	addi	a4,a4,1
     cf0:	0a097e03          	.4byte	0xa097e03
     cf4:	0100                	addi	s0,sp,128
     cf6:	1d05                	addi	s10,s10,-31
     cf8:	097ede03          	lhu	t3,151(t4) # ffffffffffff9097 <_sp+0xffffffff8fff8097>
     cfc:	0006                	c.slli	zero,0x1
     cfe:	0501                	addi	a0,a0,0
     d00:	a5030603          	lb	a2,-1456(t1)
     d04:	0901                	addi	s2,s2,0
     d06:	0004                	.2byte	0x4
     d08:	0501                	addi	a0,a0,0
     d0a:	0304                	addi	s1,sp,384
     d0c:	0901                	addi	s2,s2,0
     d0e:	0000                	unimp
     d10:	0501                	addi	a0,a0,0
     d12:	0302                	c.slli64	t1
     d14:	00097ee3          	bgeu	s2,zero,1530 <_prog_start-0x40000ad0>
     d18:	0100                	addi	s0,sp,128
     d1a:	00097503          	.4byte	0x97503
     d1e:	0100                	addi	s0,sp,128
     d20:	00090203          	lb	tp,0(s2)
     d24:	0100                	addi	s0,sp,128
     d26:	1d05                	addi	s10,s10,-31
     d28:	0306                	slli	t1,t1,0x1
     d2a:	0900                	addi	s0,sp,144
     d2c:	0000                	unimp
     d2e:	0501                	addi	a0,a0,0
     d30:	0602                	c.slli64	a2
     d32:	04090103          	lb	sp,64(s2)
     d36:	0100                	addi	s0,sp,128
     d38:	0305                	addi	t1,t1,1
     d3a:	00090103          	lb	sp,0(s2)
     d3e:	0100                	addi	s0,sp,128
     d40:	0705                	addi	a4,a4,1
     d42:	0306                	slli	t1,t1,0x1
     d44:	0900                	addi	s0,sp,144
     d46:	0000                	unimp
     d48:	0501                	addi	a0,a0,0
     d4a:	060d                	addi	a2,a2,3
     d4c:	06090103          	lb	sp,96(s2)
     d50:	0100                	addi	s0,sp,128
     d52:	0205                	addi	tp,tp,1 # 1 <_prog_start-0x40001fff>
     d54:	04090103          	lb	sp,64(s2)
     d58:	0100                	addi	s0,sp,128
     d5a:	0905                	addi	s2,s2,1
     d5c:	0306                	slli	t1,t1,0x1
     d5e:	0900                	addi	s0,sp,144
     d60:	000c                	.2byte	0xc
     d62:	0501                	addi	a0,a0,0
     d64:	0604                	addi	s1,sp,768
     d66:	0901a303          	lw	t1,144(gp)
     d6a:	0004                	.2byte	0x4
     d6c:	0501                	addi	a0,a0,0
     d6e:	0606                	slli	a2,a2,0x1
     d70:	02095703          	lhu	a4,32(s2)
     d74:	0100                	addi	s0,sp,128
     d76:	0905                	addi	s2,s2,1
     d78:	02090103          	lb	sp,32(s2)
     d7c:	0100                	addi	s0,sp,128
     d7e:	0d05                	addi	s10,s10,1
     d80:	08090103          	lb	sp,128(s2)
     d84:	0100                	addi	s0,sp,128
     d86:	0605                	addi	a2,a2,1
     d88:	04090003          	lb	zero,64(s2)
     d8c:	0100                	addi	s0,sp,128
     d8e:	1605                	addi	a2,a2,-31
     d90:	02090103          	lb	sp,32(s2)
     d94:	0100                	addi	s0,sp,128
     d96:	0605                	addi	a2,a2,1
     d98:	10090003          	lb	zero,256(s2)
     d9c:	0100                	addi	s0,sp,128
     d9e:	06092603          	lw	a2,96(s2)
     da2:	0100                	addi	s0,sp,128
     da4:	0905                	addi	s2,s2,1
     da6:	04090003          	lb	zero,64(s2)
     daa:	0100                	addi	s0,sp,128
     dac:	0405                	addi	s0,s0,1
     dae:	0306                	slli	t1,t1,0x1
     db0:	0901                	addi	s2,s2,0
     db2:	0004                	.2byte	0x4
     db4:	0501                	addi	a0,a0,0
     db6:	0302                	c.slli64	t1
     db8:	0955                	addi	s2,s2,21
     dba:	0000                	unimp
     dbc:	0301                	addi	t1,t1,0
     dbe:	0901                	addi	s2,s2,0
     dc0:	0000                	unimp
     dc2:	0301                	addi	t1,t1,0
     dc4:	0901                	addi	s2,s2,0
     dc6:	0000                	unimp
     dc8:	0301                	addi	t1,t1,0
     dca:	0901                	addi	s2,s2,0
     dcc:	0000                	unimp
     dce:	0301                	addi	t1,t1,0
     dd0:	0901                	addi	s2,s2,0
     dd2:	0000                	unimp
     dd4:	0501                	addi	a0,a0,0
     dd6:	0606                	slli	a2,a2,0x1
     dd8:	00090003          	lb	zero,0(s2)
     ddc:	0100                	addi	s0,sp,128
     dde:	0205                	addi	tp,tp,1 # 1 <_prog_start-0x40001fff>
     de0:	0306                	slli	t1,t1,0x1
     de2:	0901                	addi	s2,s2,0
     de4:	0002                	c.slli64	zero
     de6:	0501                	addi	a0,a0,0
     de8:	0310                	addi	a2,sp,384
     dea:	00000927          	.4byte	0x927
     dee:	0501                	addi	a0,a0,0
     df0:	0606                	slli	a2,a2,0x1
     df2:	04097e03          	.4byte	0x4097e03
     df6:	0100                	addi	s0,sp,128
     df8:	0305                	addi	t1,t1,1
     dfa:	0306                	slli	t1,t1,0x1
     dfc:	0904                	addi	s1,sp,144
     dfe:	0004                	.2byte	0x4
     e00:	0501                	addi	a0,a0,0
     e02:	0302                	c.slli64	t1
     e04:	7ede                	ld	t4,496(sp)
     e06:	0009                	c.nop	2
     e08:	0100                	addi	s0,sp,128
     e0a:	00097503          	.4byte	0x97503
     e0e:	0100                	addi	s0,sp,128
     e10:	00090203          	lb	tp,0(s2)
     e14:	0100                	addi	s0,sp,128
     e16:	1d05                	addi	s10,s10,-31
     e18:	0306                	slli	t1,t1,0x1
     e1a:	0900                	addi	s0,sp,144
     e1c:	0000                	unimp
     e1e:	0501                	addi	a0,a0,0
     e20:	0602                	c.slli64	a2
     e22:	04090103          	lb	sp,64(s2)
     e26:	0100                	addi	s0,sp,128
     e28:	0305                	addi	t1,t1,1
     e2a:	00090103          	lb	sp,0(s2)
     e2e:	0100                	addi	s0,sp,128
     e30:	0705                	addi	a4,a4,1
     e32:	0306                	slli	t1,t1,0x1
     e34:	0900                	addi	s0,sp,144
     e36:	0000                	unimp
     e38:	0501                	addi	a0,a0,0
     e3a:	060d                	addi	a2,a2,3
     e3c:	06090103          	lb	sp,96(s2)
     e40:	0100                	addi	s0,sp,128
     e42:	0205                	addi	tp,tp,1 # 1 <_prog_start-0x40001fff>
     e44:	04090103          	lb	sp,64(s2)
     e48:	0100                	addi	s0,sp,128
     e4a:	1805                	addi	a6,a6,-31
     e4c:	0306                	slli	t1,t1,0x1
     e4e:	000901a7          	.4byte	0x901a7
     e52:	0100                	addi	s0,sp,128
     e54:	0b05                	addi	s6,s6,1
     e56:	04090003          	lb	zero,64(s2)
     e5a:	0100                	addi	s0,sp,128
     e5c:	0305                	addi	t1,t1,1
     e5e:	0306                	slli	t1,t1,0x1
     e60:	0901                	addi	s2,s2,0
     e62:	0008                	.2byte	0x8
     e64:	0501                	addi	a0,a0,0
     e66:	0302                	c.slli64	t1
     e68:	7edd                	lui	t4,0xffff7
     e6a:	0009                	c.nop	2
     e6c:	0100                	addi	s0,sp,128
     e6e:	00097503          	.4byte	0x97503
     e72:	0100                	addi	s0,sp,128
     e74:	00090203          	lb	tp,0(s2)
     e78:	0100                	addi	s0,sp,128
     e7a:	1d05                	addi	s10,s10,-31
     e7c:	0306                	slli	t1,t1,0x1
     e7e:	0900                	addi	s0,sp,144
     e80:	0000                	unimp
     e82:	0501                	addi	a0,a0,0
     e84:	0602                	c.slli64	a2
     e86:	04090103          	lb	sp,64(s2)
     e8a:	0100                	addi	s0,sp,128
     e8c:	0305                	addi	t1,t1,1
     e8e:	00090103          	lb	sp,0(s2)
     e92:	0100                	addi	s0,sp,128
     e94:	0705                	addi	a4,a4,1
     e96:	0306                	slli	t1,t1,0x1
     e98:	0900                	addi	s0,sp,144
     e9a:	0000                	unimp
     e9c:	0501                	addi	a0,a0,0
     e9e:	060d                	addi	a2,a2,3
     ea0:	06090103          	lb	sp,96(s2)
     ea4:	0100                	addi	s0,sp,128
     ea6:	0205                	addi	tp,tp,1 # 1 <_prog_start-0x40001fff>
     ea8:	04090103          	lb	sp,64(s2)
     eac:	0100                	addi	s0,sp,128
     eae:	0305                	addi	t1,t1,1
     eb0:	0901aa03          	lw	s4,144(gp)
     eb4:	0000                	unimp
     eb6:	0501                	addi	a0,a0,0
     eb8:	7e03060b          	.4byte	0x7e03060b
     ebc:	0009                	c.nop	2
     ebe:	0100                	addi	s0,sp,128
     ec0:	0605                	addi	a2,a2,1
     ec2:	04090203          	lb	tp,64(s2)
     ec6:	0100                	addi	s0,sp,128
     ec8:	0305                	addi	t1,t1,1
     eca:	0306                	slli	t1,t1,0x1
     ecc:	0906                	slli	s2,s2,0x1
     ece:	0006                	c.slli	zero,0x1
     ed0:	0501                	addi	a0,a0,0
     ed2:	0904030f          	.4byte	0x904030f
     ed6:	0000                	unimp
     ed8:	0501                	addi	a0,a0,0
     eda:	0302                	c.slli64	t1
     edc:	0901                	addi	s2,s2,0
     ede:	0004                	.2byte	0x4
     ee0:	0301                	addi	t1,t1,0
     ee2:	7ef0                	ld	a2,248(a3)
     ee4:	0009                	c.nop	2
     ee6:	0100                	addi	s0,sp,128
     ee8:	00096003          	lwu	zero,0(s2)
     eec:	0100                	addi	s0,sp,128
     eee:	00097503          	.4byte	0x97503
     ef2:	0100                	addi	s0,sp,128
     ef4:	00090203          	lb	tp,0(s2)
     ef8:	0100                	addi	s0,sp,128
     efa:	1d05                	addi	s10,s10,-31
     efc:	0306                	slli	t1,t1,0x1
     efe:	0900                	addi	s0,sp,144
     f00:	0000                	unimp
     f02:	0501                	addi	a0,a0,0
     f04:	09020307          	.4byte	0x9020307
     f08:	000a                	c.slli	zero,0x2
     f0a:	0501                	addi	a0,a0,0
     f0c:	0602                	c.slli64	a2
     f0e:	04097f03          	.4byte	0x4097f03
     f12:	0100                	addi	s0,sp,128
     f14:	0305                	addi	t1,t1,1
     f16:	00090103          	lb	sp,0(s2)
     f1a:	0100                	addi	s0,sp,128
     f1c:	0705                	addi	a4,a4,1
     f1e:	0306                	slli	t1,t1,0x1
     f20:	0900                	addi	s0,sp,144
     f22:	0000                	unimp
     f24:	0501                	addi	a0,a0,0
     f26:	060d                	addi	a2,a2,3
     f28:	02090103          	lb	sp,32(s2)
     f2c:	0100                	addi	s0,sp,128
     f2e:	0205                	addi	tp,tp,1 # 1 <_prog_start-0x40001fff>
     f30:	04090103          	lb	sp,64(s2)
     f34:	0100                	addi	s0,sp,128
     f36:	00092603          	lw	a2,0(s2)
     f3a:	0100                	addi	s0,sp,128
     f3c:	1d05                	addi	s10,s10,-31
     f3e:	0306                	slli	t1,t1,0x1
     f40:	0900                	addi	s0,sp,144
     f42:	0000                	unimp
     f44:	0501                	addi	a0,a0,0
     f46:	0602                	c.slli64	a2
     f48:	09019203          	lh	tp,144(gp)
     f4c:	0004                	.2byte	0x4
     f4e:	0301                	addi	t1,t1,0
     f50:	0901                	addi	s2,s2,0
     f52:	000c                	.2byte	0xc
     f54:	0301                	addi	t1,t1,0
     f56:	7eec                	ld	a1,248(a3)
     f58:	0009                	c.nop	2
     f5a:	0100                	addi	s0,sp,128
     f5c:	00096003          	lwu	zero,0(s2)
     f60:	0100                	addi	s0,sp,128
     f62:	00097503          	.4byte	0x97503
     f66:	0100                	addi	s0,sp,128
     f68:	00090203          	lb	tp,0(s2)
     f6c:	0100                	addi	s0,sp,128
     f6e:	1d05                	addi	s10,s10,-31
     f70:	0306                	slli	t1,t1,0x1
     f72:	0900                	addi	s0,sp,144
     f74:	0000                	unimp
     f76:	0501                	addi	a0,a0,0
     f78:	09020307          	.4byte	0x9020307
     f7c:	0006                	c.slli	zero,0x1
     f7e:	0501                	addi	a0,a0,0
     f80:	0602                	c.slli64	a2
     f82:	04097f03          	.4byte	0x4097f03
     f86:	0100                	addi	s0,sp,128
     f88:	0305                	addi	t1,t1,1
     f8a:	00090103          	lb	sp,0(s2)
     f8e:	0100                	addi	s0,sp,128
     f90:	0705                	addi	a4,a4,1
     f92:	0306                	slli	t1,t1,0x1
     f94:	0900                	addi	s0,sp,144
     f96:	0000                	unimp
     f98:	0501                	addi	a0,a0,0
     f9a:	060d                	addi	a2,a2,3
     f9c:	02090103          	lb	sp,32(s2)
     fa0:	0100                	addi	s0,sp,128
     fa2:	0205                	addi	tp,tp,1 # 1 <_prog_start-0x40001fff>
     fa4:	04090103          	lb	sp,64(s2)
     fa8:	0100                	addi	s0,sp,128
     faa:	00092603          	lw	a2,0(s2)
     fae:	0100                	addi	s0,sp,128
     fb0:	1d05                	addi	s10,s10,-31
     fb2:	0306                	slli	t1,t1,0x1
     fb4:	0900                	addi	s0,sp,144
     fb6:	0000                	unimp
     fb8:	0501                	addi	a0,a0,0
     fba:	0602                	c.slli64	a2
     fbc:	09019403          	lh	s0,144(gp)
     fc0:	0004                	.2byte	0x4
     fc2:	0301                	addi	t1,t1,0
     fc4:	0901                	addi	s2,s2,0
     fc6:	000c                	.2byte	0xc
     fc8:	0501                	addi	a0,a0,0
     fca:	0610                	addi	a2,sp,768
     fcc:	00091103          	lh	sp,0(s2)
     fd0:	0100                	addi	s0,sp,128
     fd2:	0405                	addi	s0,s0,1
     fd4:	0306                	slli	t1,t1,0x1
     fd6:	0905                	addi	s2,s2,1
     fd8:	0004                	.2byte	0x4
     fda:	0301                	addi	t1,t1,0
     fdc:	095a                	slli	s2,s2,0x16
     fde:	000e                	c.slli	zero,0x3
     fe0:	0301                	addi	t1,t1,0
     fe2:	0901                	addi	s2,s2,0
     fe4:	000c                	.2byte	0xc
     fe6:	0301                	addi	t1,t1,0
     fe8:	0901                	addi	s2,s2,0
     fea:	0000                	unimp
     fec:	0501                	addi	a0,a0,0
     fee:	7f030607          	.4byte	0x7f030607
     ff2:	0009                	c.nop	2
     ff4:	0100                	addi	s0,sp,128
     ff6:	0405                	addi	s0,s0,1
     ff8:	02090103          	lb	sp,32(s2)
     ffc:	0100                	addi	s0,sp,128
     ffe:	0305                	addi	t1,t1,1
    1000:	0306                	slli	t1,t1,0x1
    1002:	096a                	slli	s2,s2,0x1a
    1004:	0002                	c.slli64	zero
    1006:	0501                	addi	a0,a0,0
    1008:	0302                	c.slli64	t1
    100a:	7f8e                	ld	t6,224(sp)
    100c:	0009                	c.nop	2
    100e:	0100                	addi	s0,sp,128
    1010:	00096003          	lwu	zero,0(s2)
    1014:	0100                	addi	s0,sp,128
    1016:	00097503          	.4byte	0x97503
    101a:	0100                	addi	s0,sp,128
    101c:	00090203          	lb	tp,0(s2)
    1020:	0100                	addi	s0,sp,128
    1022:	1d05                	addi	s10,s10,-31
    1024:	0306                	slli	t1,t1,0x1
    1026:	0900                	addi	s0,sp,144
    1028:	0000                	unimp
    102a:	0501                	addi	a0,a0,0
    102c:	09020307          	.4byte	0x9020307
    1030:	0006                	c.slli	zero,0x1
    1032:	0501                	addi	a0,a0,0
    1034:	0602                	c.slli64	a2
    1036:	04097f03          	.4byte	0x4097f03
    103a:	0100                	addi	s0,sp,128
    103c:	0305                	addi	t1,t1,1
    103e:	00090103          	lb	sp,0(s2)
    1042:	0100                	addi	s0,sp,128
    1044:	0705                	addi	a4,a4,1
    1046:	0306                	slli	t1,t1,0x1
    1048:	0900                	addi	s0,sp,144
    104a:	0000                	unimp
    104c:	0501                	addi	a0,a0,0
    104e:	060d                	addi	a2,a2,3
    1050:	02090103          	lb	sp,32(s2)
    1054:	0100                	addi	s0,sp,128
    1056:	0205                	addi	tp,tp,1 # 1 <_prog_start-0x40001fff>
    1058:	04090103          	lb	sp,64(s2)
    105c:	0100                	addi	s0,sp,128
    105e:	00092603          	lw	a2,0(s2)
    1062:	0100                	addi	s0,sp,128
    1064:	1d05                	addi	s10,s10,-31
    1066:	0306                	slli	t1,t1,0x1
    1068:	0900                	addi	s0,sp,144
    106a:	0000                	unimp
    106c:	0501                	addi	a0,a0,0
    106e:	f2030603          	lb	a2,-224(t1)
    1072:	0900                	addi	s0,sp,144
    1074:	0004                	.2byte	0x4
    1076:	0901                	addi	s2,s2,0
    1078:	0002                	c.slli64	zero
    107a:	0100                	addi	s0,sp,128
    107c:	8301                	c.srli64	a4
    107e:	0004                	.2byte	0x4
    1080:	0500                	addi	s0,sp,640
    1082:	0800                	addi	s0,sp,16
    1084:	4a00                	lw	s0,16(a2)
    1086:	0000                	unimp
    1088:	0100                	addi	s0,sp,128
    108a:	0101                	addi	sp,sp,0
    108c:	000d0efb          	.4byte	0xd0efb
    1090:	0101                	addi	sp,sp,0
    1092:	0101                	addi	sp,sp,0
    1094:	0000                	unimp
    1096:	0100                	addi	s0,sp,128
    1098:	0000                	unimp
    109a:	0101                	addi	sp,sp,0
    109c:	1f01                	addi	t5,t5,-32
    109e:	0004                	.2byte	0x4
    10a0:	0000                	unimp
    10a2:	6000                	ld	s0,0(s0)
    10a4:	0001                	nop
    10a6:	6500                	ld	s0,8(a0)
    10a8:	0000                	unimp
    10aa:	cd00                	sw	s0,24(a0)
    10ac:	0000                	unimp
    10ae:	0200                	addi	s0,sp,256
    10b0:	1f01                	addi	t5,t5,-32
    10b2:	0f02                	c.slli64	t5
    10b4:	5606                	lw	a2,96(sp)
    10b6:	0001                	nop
    10b8:	0000                	unimp
    10ba:	0156                	slli	sp,sp,0x15
    10bc:	0000                	unimp
    10be:	4c00                	lw	s0,24(s0)
    10c0:	0001                	nop
    10c2:	0000                	unimp
    10c4:	000001cf          	fnmadd.s	ft3,ft0,ft0,ft0,rne
    10c8:	3101                	addiw	sp,sp,-32
    10ca:	0001                	nop
    10cc:	0200                	addi	s0,sp,256
    10ce:	0142                	slli	sp,sp,0x10
    10d0:	0000                	unimp
    10d2:	00010503          	lb	a0,0(sp)
    10d6:	0209                	addi	tp,tp,2 # 2 <_prog_start-0x40001ffe>
    10d8:	24d8                	fld	fa4,136(s1)
    10da:	4000                	lw	s0,0(s0)
    10dc:	0000                	unimp
    10de:	0000                	unimp
    10e0:	05010f03          	lb	t5,80(sp)
    10e4:	0302                	c.slli64	t1
    10e6:	0901                	addi	s2,s2,0
    10e8:	0000                	unimp
    10ea:	0301                	addi	t1,t1,0
    10ec:	0979                	addi	s2,s2,30
    10ee:	0000                	unimp
    10f0:	0301                	addi	t1,t1,0
    10f2:	0901                	addi	s2,s2,0
    10f4:	0000                	unimp
    10f6:	0501                	addi	a0,a0,0
    10f8:	0312                	slli	t1,t1,0x4
    10fa:	0900                	addi	s0,sp,144
    10fc:	0000                	unimp
    10fe:	0501                	addi	a0,a0,0
    1100:	060c                	addi	a1,sp,768
    1102:	00090003          	lb	zero,0(s2)
    1106:	0100                	addi	s0,sp,128
    1108:	1205                	addi	tp,tp,-31 # ffffffffffffffe1 <_sp+0xffffffff8fffefe1>
    110a:	04090003          	lb	zero,64(s2)
    110e:	0100                	addi	s0,sp,128
    1110:	0204                	addi	s1,sp,256
    1112:	0305                	addi	t1,t1,1
    1114:	02091003          	lh	zero,32(s2)
    1118:	0100                	addi	s0,sp,128
    111a:	0205                	addi	tp,tp,1 # 1 <_prog_start-0x40001fff>
    111c:	0306                	slli	t1,t1,0x1
    111e:	097e                	slli	s2,s2,0x1f
    1120:	0004                	.2byte	0x4
    1122:	0301                	addi	t1,t1,0
    1124:	0901                	addi	s2,s2,0
    1126:	0000                	unimp
    1128:	0501                	addi	a0,a0,0
    112a:	09010303          	lb	t1,144(sp)
    112e:	0000                	unimp
    1130:	0501                	addi	a0,a0,0
    1132:	030d                	addi	t1,t1,3
    1134:	0904                	addi	s1,sp,144
    1136:	0006                	c.slli	zero,0x1
    1138:	0401                	addi	s0,s0,0
    113a:	0501                	addi	a0,a0,0
    113c:	031c                	addi	a5,sp,384
    113e:	096c                	addi	a1,sp,156
    1140:	0004                	.2byte	0x4
    1142:	0501                	addi	a0,a0,0
    1144:	060c                	addi	a1,sp,768
    1146:	00090003          	lb	zero,0(s2)
    114a:	0100                	addi	s0,sp,128
    114c:	1c05                	addi	s8,s8,-31
    114e:	04090003          	lb	zero,64(s2)
    1152:	0100                	addi	s0,sp,128
    1154:	1205                	addi	tp,tp,-31 # ffffffffffffffe1 <_sp+0xffffffff8fffefe1>
    1156:	0306                	slli	t1,t1,0x1
    1158:	0900                	addi	s0,sp,144
    115a:	0002                	c.slli64	zero
    115c:	0401                	addi	s0,s0,0
    115e:	0502                	c.slli64	a0
    1160:	10030603          	lb	a2,256(t1)
    1164:	0209                	addi	tp,tp,2 # 2 <_prog_start-0x40001ffe>
    1166:	0100                	addi	s0,sp,128
    1168:	0205                	addi	tp,tp,1 # 1 <_prog_start-0x40001fff>
    116a:	0306                	slli	t1,t1,0x1
    116c:	097e                	slli	s2,s2,0x1f
    116e:	0006                	c.slli	zero,0x1
    1170:	0301                	addi	t1,t1,0
    1172:	0901                	addi	s2,s2,0
    1174:	0000                	unimp
    1176:	0501                	addi	a0,a0,0
    1178:	09010303          	lb	t1,144(sp)
    117c:	0000                	unimp
    117e:	0501                	addi	a0,a0,0
    1180:	030d                	addi	t1,t1,3
    1182:	0904                	addi	s1,sp,144
    1184:	0006                	c.slli	zero,0x1
    1186:	0501                	addi	a0,a0,0
    1188:	7c030603          	lb	a2,1984(t1)
    118c:	0409                	addi	s0,s0,2
    118e:	0100                	addi	s0,sp,128
    1190:	0205                	addi	tp,tp,1 # 1 <_prog_start-0x40001fff>
    1192:	0306                	slli	t1,t1,0x1
    1194:	097e                	slli	s2,s2,0x1f
    1196:	0006                	c.slli	zero,0x1
    1198:	0301                	addi	t1,t1,0
    119a:	0901                	addi	s2,s2,0
    119c:	0000                	unimp
    119e:	0501                	addi	a0,a0,0
    11a0:	09010303          	lb	t1,144(sp)
    11a4:	0000                	unimp
    11a6:	0501                	addi	a0,a0,0
    11a8:	030d                	addi	t1,t1,3
    11aa:	0904                	addi	s1,sp,144
    11ac:	0006                	c.slli	zero,0x1
    11ae:	0401                	addi	s0,s0,0
    11b0:	0501                	addi	a0,a0,0
    11b2:	0601                	addi	a2,a2,0
    11b4:	04097503          	.4byte	0x4097503
    11b8:	0100                	addi	s0,sp,128
    11ba:	0306                	slli	t1,t1,0x1
    11bc:	00020903          	lb	s2,0(tp) # 0 <_prog_start-0x40002000>
    11c0:	0501                	addi	a0,a0,0
    11c2:	0302                	c.slli64	t1
    11c4:	0901                	addi	s2,s2,0
    11c6:	0000                	unimp
    11c8:	0301                	addi	t1,t1,0
    11ca:	0901                	addi	s2,s2,0
    11cc:	0000                	unimp
    11ce:	0301                	addi	t1,t1,0
    11d0:	0901                	addi	s2,s2,0
    11d2:	0000                	unimp
    11d4:	0301                	addi	t1,t1,0
    11d6:	0902                	c.slli64	s2
    11d8:	0000                	unimp
    11da:	0501                	addi	a0,a0,0
    11dc:	0601                	addi	a2,a2,0
    11de:	00097b03          	.4byte	0x97b03
    11e2:	0100                	addi	s0,sp,128
    11e4:	0c05                	addi	s8,s8,1
    11e6:	02090903          	lb	s2,32(s2)
    11ea:	0100                	addi	s0,sp,128
    11ec:	0105                	addi	sp,sp,1
    11ee:	04097703          	.4byte	0x4097703
    11f2:	0100                	addi	s0,sp,128
    11f4:	0205                	addi	tp,tp,1 # 1 <_prog_start-0x40001fff>
    11f6:	02090503          	lb	a0,32(s2)
    11fa:	0100                	addi	s0,sp,128
    11fc:	0105                	addi	sp,sp,1
    11fe:	02097b03          	.4byte	0x2097b03
    1202:	0100                	addi	s0,sp,128
    1204:	0205                	addi	tp,tp,1 # 1 <_prog_start-0x40001fff>
    1206:	0c090503          	lb	a0,192(s2)
    120a:	0100                	addi	s0,sp,128
    120c:	0306                	slli	t1,t1,0x1
    120e:	0901                	addi	s2,s2,0
    1210:	0002                	c.slli64	zero
    1212:	0301                	addi	t1,t1,0
    1214:	0901                	addi	s2,s2,0
    1216:	0000                	unimp
    1218:	0301                	addi	t1,t1,0
    121a:	0901                	addi	s2,s2,0
    121c:	0000                	unimp
    121e:	0301                	addi	t1,t1,0
    1220:	0901                	addi	s2,s2,0
    1222:	0000                	unimp
    1224:	0501                	addi	a0,a0,0
    1226:	0316                	slli	t1,t1,0x5
    1228:	0900                	addi	s0,sp,144
    122a:	0000                	unimp
    122c:	0501                	addi	a0,a0,0
    122e:	060d                	addi	a2,a2,3
    1230:	0e092403          	lw	s0,224(s2)
    1234:	0100                	addi	s0,sp,128
    1236:	0204                	addi	s1,sp,256
    1238:	0305                	addi	t1,t1,1
    123a:	04095703          	lhu	a4,64(s2)
    123e:	0100                	addi	s0,sp,128
    1240:	0104                	addi	s1,sp,128
    1242:	0405                	addi	s0,s0,1
    1244:	04090703          	lb	a4,64(s2)
    1248:	0100                	addi	s0,sp,128
    124a:	0305                	addi	t1,t1,1
    124c:	0306                	slli	t1,t1,0x1
    124e:	097f                	.2byte	0x97f
    1250:	000a                	c.slli	zero,0x2
    1252:	0501                	addi	a0,a0,0
    1254:	0606                	slli	a2,a2,0x1
    1256:	00090003          	lb	zero,0(s2)
    125a:	0100                	addi	s0,sp,128
    125c:	0405                	addi	s0,s0,1
    125e:	0306                	slli	t1,t1,0x1
    1260:	0901                	addi	s2,s2,0
    1262:	0002                	c.slli64	zero
    1264:	0501                	addi	a0,a0,0
    1266:	0305                	addi	t1,t1,1
    1268:	091c                	addi	a5,sp,144
    126a:	0018                	.2byte	0x18
    126c:	0501                	addi	a0,a0,0
    126e:	0003060b          	.4byte	0x3060b
    1272:	0009                	c.nop	2
    1274:	0100                	addi	s0,sp,128
    1276:	0204                	addi	s1,sp,256
    1278:	0305                	addi	t1,t1,1
    127a:	02095d03          	lhu	s10,32(s2)
    127e:	0100                	addi	s0,sp,128
    1280:	0104                	addi	s1,sp,128
    1282:	0505                	addi	a0,a0,1
    1284:	04092303          	lw	t1,64(s2)
    1288:	0100                	addi	s0,sp,128
    128a:	0204                	addi	s1,sp,256
    128c:	0205                	addi	tp,tp,1 # 1 <_prog_start-0x40001fff>
    128e:	0306                	slli	t1,t1,0x1
    1290:	0959                	addi	s2,s2,22
    1292:	0004                	.2byte	0x4
    1294:	0401                	addi	s0,s0,0
    1296:	0501                	addi	a0,a0,0
    1298:	2703060b          	.4byte	0x2703060b
    129c:	0009                	c.nop	2
    129e:	0100                	addi	s0,sp,128
    12a0:	0204                	addi	s1,sp,256
    12a2:	0205                	addi	tp,tp,1 # 1 <_prog_start-0x40001fff>
    12a4:	0306                	slli	t1,t1,0x1
    12a6:	0004095b          	.4byte	0x4095b
    12aa:	0301                	addi	t1,t1,0
    12ac:	0901                	addi	s2,s2,0
    12ae:	0000                	unimp
    12b0:	0501                	addi	a0,a0,0
    12b2:	09010303          	lb	t1,144(sp)
    12b6:	0000                	unimp
    12b8:	0501                	addi	a0,a0,0
    12ba:	030d                	addi	t1,t1,3
    12bc:	0904                	addi	s1,sp,144
    12be:	0006                	c.slli	zero,0x1
    12c0:	0401                	addi	s0,s0,0
    12c2:	0501                	addi	a0,a0,0
    12c4:	060c                	addi	a1,sp,768
    12c6:	04092403          	lw	s0,64(s2)
    12ca:	0100                	addi	s0,sp,128
    12cc:	02097f03          	.4byte	0x2097f03
    12d0:	0100                	addi	s0,sp,128
    12d2:	0e05                	addi	t3,t3,1
    12d4:	02097f03          	.4byte	0x2097f03
    12d8:	0100                	addi	s0,sp,128
    12da:	1605                	addi	a2,a2,-31
    12dc:	0306                	slli	t1,t1,0x1
    12de:	095f 0002 0501      	.byte	0x5f, 0x09, 0x02, 0x00, 0x01, 0x05
    12e4:	060c                	addi	a1,sp,768
    12e6:	00090003          	lb	zero,0(s2)
    12ea:	0100                	addi	s0,sp,128
    12ec:	1205                	addi	tp,tp,-31 # ffffffffffffffe1 <_sp+0xffffffff8fffefe1>
    12ee:	04090003          	lb	zero,64(s2)
    12f2:	0100                	addi	s0,sp,128
    12f4:	1605                	addi	a2,a2,-31
    12f6:	02090003          	lb	zero,32(s2)
    12fa:	0100                	addi	s0,sp,128
    12fc:	0105                	addi	sp,sp,1
    12fe:	04092b03          	lw	s6,64(s2)
    1302:	0100                	addi	s0,sp,128
    1304:	0505                	addi	a0,a0,1
    1306:	0306                	slli	t1,t1,0x1
    1308:	095f 0004 0301      	.byte	0x5f, 0x09, 0x04, 0x00, 0x01, 0x03
    130e:	0901                	addi	s2,s2,0
    1310:	0000                	unimp
    1312:	0301                	addi	t1,t1,0
    1314:	0901                	addi	s2,s2,0
    1316:	0000                	unimp
    1318:	0501                	addi	a0,a0,0
    131a:	0608                	addi	a0,sp,768
    131c:	00090103          	lb	sp,0(s2)
    1320:	0100                	addi	s0,sp,128
    1322:	06097f03          	.4byte	0x6097f03
    1326:	0100                	addi	s0,sp,128
    1328:	0605                	addi	a2,a2,1
    132a:	0306                	slli	t1,t1,0x1
    132c:	0901                	addi	s2,s2,0
    132e:	0002                	c.slli64	zero
    1330:	0501                	addi	a0,a0,0
    1332:	0608                	addi	a0,sp,768
    1334:	00090003          	lb	zero,0(s2)
    1338:	0100                	addi	s0,sp,128
    133a:	0605                	addi	a2,a2,1
    133c:	0306                	slli	t1,t1,0x1
    133e:	0901                	addi	s2,s2,0
    1340:	0004                	.2byte	0x4
    1342:	0501                	addi	a0,a0,0
    1344:	030e                	slli	t1,t1,0x3
    1346:	0905                	addi	s2,s2,1
    1348:	0000                	unimp
    134a:	0501                	addi	a0,a0,0
    134c:	0608                	addi	a0,sp,768
    134e:	00097a03          	.4byte	0x97a03
    1352:	0100                	addi	s0,sp,128
    1354:	02090103          	lb	sp,32(s2)
    1358:	0100                	addi	s0,sp,128
    135a:	0605                	addi	a2,a2,1
    135c:	04090803          	lb	a6,64(s2)
    1360:	0100                	addi	s0,sp,128
    1362:	0204                	addi	s1,sp,256
    1364:	0305                	addi	t1,t1,1
    1366:	02096503          	lwu	a0,32(s2)
    136a:	0100                	addi	s0,sp,128
    136c:	0104                	addi	s1,sp,128
    136e:	0e05                	addi	t3,t3,1
    1370:	04091803          	lh	a6,64(s2)
    1374:	0100                	addi	s0,sp,128
    1376:	0605                	addi	a2,a2,1
    1378:	0306                	slli	t1,t1,0x1
    137a:	0901                	addi	s2,s2,0
    137c:	0002                	c.slli64	zero
    137e:	0301                	addi	t1,t1,0
    1380:	0901                	addi	s2,s2,0
    1382:	0000                	unimp
    1384:	0501                	addi	a0,a0,0
    1386:	060d                	addi	a2,a2,3
    1388:	00090003          	lb	zero,0(s2)
    138c:	0100                	addi	s0,sp,128
    138e:	1905                	addi	s2,s2,-31
    1390:	04090103          	lb	sp,64(s2)
    1394:	0100                	addi	s0,sp,128
    1396:	0605                	addi	a2,a2,1
    1398:	0306                	slli	t1,t1,0x1
    139a:	0900                	addi	s0,sp,144
    139c:	0004                	.2byte	0x4
    139e:	0001                	nop
    13a0:	0402                	c.slli64	s0
    13a2:	0601                	addi	a2,a2,0
    13a4:	08090003          	lb	zero,128(s2)
    13a8:	0100                	addi	s0,sp,128
    13aa:	0204                	addi	s1,sp,256
    13ac:	0205                	addi	tp,tp,1 # 1 <_prog_start-0x40001fff>
    13ae:	0306                	slli	t1,t1,0x1
    13b0:	00040963          	beqz	s0,13c2 <_prog_start-0x40000c3e>
    13b4:	0301                	addi	t1,t1,0
    13b6:	0901                	addi	s2,s2,0
    13b8:	0000                	unimp
    13ba:	0501                	addi	a0,a0,0
    13bc:	09010303          	lb	t1,144(sp)
    13c0:	0000                	unimp
    13c2:	0501                	addi	a0,a0,0
    13c4:	030d                	addi	t1,t1,3
    13c6:	0904                	addi	s1,sp,144
    13c8:	0006                	c.slli	zero,0x1
    13ca:	0401                	addi	s0,s0,0
    13cc:	0501                	addi	a0,a0,0
    13ce:	0016                	c.slli	zero,0x5
    13d0:	0402                	c.slli64	s0
    13d2:	0304                	addi	s1,sp,384
    13d4:	0914                	addi	a3,sp,144
    13d6:	0004                	.2byte	0x4
    13d8:	0501                	addi	a0,a0,0
    13da:	000e                	c.slli	zero,0x3
    13dc:	0402                	c.slli64	s0
    13de:	0304                	addi	s1,sp,384
    13e0:	0900                	addi	s0,sp,144
    13e2:	0002                	c.slli64	zero
    13e4:	0501                	addi	a0,a0,0
    13e6:	0305                	addi	t1,t1,1
    13e8:	0908                	addi	a0,sp,144
    13ea:	0006                	c.slli	zero,0x1
    13ec:	0501                	addi	a0,a0,0
    13ee:	0302                	c.slli64	t1
    13f0:	0004094f          	fnmadd.s	fs2,fs0,ft0,ft0,rne
    13f4:	0301                	addi	t1,t1,0
    13f6:	0901                	addi	s2,s2,0
    13f8:	0000                	unimp
    13fa:	0501                	addi	a0,a0,0
    13fc:	0312                	slli	t1,t1,0x4
    13fe:	0900                	addi	s0,sp,144
    1400:	0000                	unimp
    1402:	0501                	addi	a0,a0,0
    1404:	0605                	addi	a2,a2,1
    1406:	00093003          	ld	zero,0(s2)
    140a:	0100                	addi	s0,sp,128
    140c:	0c05                	addi	s8,s8,1
    140e:	04095003          	lhu	zero,64(s2)
    1412:	0100                	addi	s0,sp,128
    1414:	1205                	addi	tp,tp,-31 # ffffffffffffffe1 <_sp+0xffffffff8fffefe1>
    1416:	04090003          	lb	zero,64(s2)
    141a:	0100                	addi	s0,sp,128
    141c:	0204                	addi	s1,sp,256
    141e:	0305                	addi	t1,t1,1
    1420:	02091003          	lh	zero,32(s2)
    1424:	0100                	addi	s0,sp,128
    1426:	0205                	addi	tp,tp,1 # 1 <_prog_start-0x40001fff>
    1428:	0306                	slli	t1,t1,0x1
    142a:	097e                	slli	s2,s2,0x1f
    142c:	0004                	.2byte	0x4
    142e:	0301                	addi	t1,t1,0
    1430:	0901                	addi	s2,s2,0
    1432:	0000                	unimp
    1434:	0501                	addi	a0,a0,0
    1436:	09010303          	lb	t1,144(sp)
    143a:	0000                	unimp
    143c:	0501                	addi	a0,a0,0
    143e:	030d                	addi	t1,t1,3
    1440:	0904                	addi	s1,sp,144
    1442:	0006                	c.slli	zero,0x1
    1444:	0401                	addi	s0,s0,0
    1446:	0501                	addi	a0,a0,0
    1448:	031c                	addi	a5,sp,384
    144a:	096c                	addi	a1,sp,156
    144c:	0004                	.2byte	0x4
    144e:	0501                	addi	a0,a0,0
    1450:	060c                	addi	a1,sp,768
    1452:	00090003          	lb	zero,0(s2)
    1456:	0100                	addi	s0,sp,128
    1458:	1c05                	addi	s8,s8,-31
    145a:	04090003          	lb	zero,64(s2)
    145e:	0100                	addi	s0,sp,128
    1460:	1205                	addi	tp,tp,-31 # ffffffffffffffe1 <_sp+0xffffffff8fffefe1>
    1462:	0306                	slli	t1,t1,0x1
    1464:	0900                	addi	s0,sp,144
    1466:	0002                	c.slli64	zero
    1468:	0501                	addi	a0,a0,0
    146a:	030a                	slli	t1,t1,0x2
    146c:	0939                	addi	s2,s2,14
    146e:	0004                	.2byte	0x4
    1470:	0501                	addi	a0,a0,0
    1472:	060d                	addi	a2,a2,3
    1474:	00090003          	lb	zero,0(s2)
    1478:	0100                	addi	s0,sp,128
    147a:	0e05                	addi	t3,t3,1
    147c:	04090103          	lb	sp,64(s2)
    1480:	0100                	addi	s0,sp,128
    1482:	0204                	addi	s1,sp,256
    1484:	0205                	addi	tp,tp,1 # 1 <_prog_start-0x40001fff>
    1486:	0306                	slli	t1,t1,0x1
    1488:	0954                	addi	a3,sp,148
    148a:	0004                	.2byte	0x4
    148c:	0301                	addi	t1,t1,0
    148e:	0901                	addi	s2,s2,0
    1490:	0000                	unimp
    1492:	0501                	addi	a0,a0,0
    1494:	09010303          	lb	t1,144(sp)
    1498:	0000                	unimp
    149a:	0501                	addi	a0,a0,0
    149c:	030d                	addi	t1,t1,3
    149e:	0904                	addi	s1,sp,144
    14a0:	0006                	c.slli	zero,0x1
    14a2:	0501                	addi	a0,a0,0
    14a4:	0302                	c.slli64	t1
    14a6:	097a                	slli	s2,s2,0x1e
    14a8:	0004                	.2byte	0x4
    14aa:	0301                	addi	t1,t1,0
    14ac:	0901                	addi	s2,s2,0
    14ae:	0000                	unimp
    14b0:	0501                	addi	a0,a0,0
    14b2:	09010303          	lb	t1,144(sp)
    14b6:	0000                	unimp
    14b8:	0501                	addi	a0,a0,0
    14ba:	030d                	addi	t1,t1,3
    14bc:	0904                	addi	s1,sp,144
    14be:	0006                	c.slli	zero,0x1
    14c0:	0401                	addi	s0,s0,0
    14c2:	0501                	addi	a0,a0,0
    14c4:	0306                	slli	t1,t1,0x1
    14c6:	0911                	addi	s2,s2,4
    14c8:	0006                	c.slli	zero,0x1
    14ca:	0501                	addi	a0,a0,0
    14cc:	060a                	slli	a2,a2,0x2
    14ce:	00090003          	lb	zero,0(s2)
    14d2:	0100                	addi	s0,sp,128
    14d4:	0805                	addi	a6,a6,1
    14d6:	02090003          	lb	zero,32(s2)
    14da:	0100                	addi	s0,sp,128
    14dc:	0605                	addi	a2,a2,1
    14de:	0306                	slli	t1,t1,0x1
    14e0:	0901                	addi	s2,s2,0
    14e2:	0004                	.2byte	0x4
    14e4:	0501                	addi	a0,a0,0
    14e6:	0616                	slli	a2,a2,0x5
    14e8:	00090003          	lb	zero,0(s2)
    14ec:	0100                	addi	s0,sp,128
    14ee:	0405                	addi	s0,s0,1
    14f0:	0a097103          	.4byte	0xa097103
    14f4:	0100                	addi	s0,sp,128
    14f6:	0d05                	addi	s10,s10,1
    14f8:	04090203          	lb	tp,64(s2)
    14fc:	0100                	addi	s0,sp,128
    14fe:	0409                	addi	s0,s0,2
    1500:	0000                	unimp
    1502:	0101                	addi	sp,sp,0

Disassembly of section .debug_line_str:

0000000000000000 <.debug_line_str>:
   0:	6d6f682f          	.4byte	0x6d6f682f
   4:	2f65                	addiw	t5,t5,25
   6:	6962                	ld	s2,24(sp)
   8:	686e                	ld	a6,216(sp)
   a:	7565696b          	.4byte	0x7565696b
   e:	6f64                	ld	s1,216(a4)
  10:	726f572f          	.4byte	0x726f572f
  14:	6170736b          	.4byte	0x6170736b
  18:	742f6563          	bltu	t5,sp,762 <_prog_start-0x4000189e>
  1c:	706d                	c.lui	zero,0xffffb
  1e:	4d43482f          	.4byte	0x4d43482f
  22:	5355                	li	t1,-11
  24:	5054                	lw	a3,36(s0)
  26:	6f72                	ld	t5,280(sp)
  28:	656a                	ld	a0,152(sp)
  2a:	662f7463          	bgeu	t5,sp,692 <_prog_start-0x4000196e>
  2e:	6172                	ld	sp,280(sp)
  30:	656d                	lui	a0,0x1b
  32:	6b726f77          	.4byte	0x6b726f77
  36:	6372732f          	.4byte	0x6372732f
  3a:	69616d2f          	.4byte	0x69616d2f
  3e:	2f6e                	fld	ft10,216(sp)
  40:	6572                	ld	a0,280(sp)
  42:	72756f73          	csrrsi	t5,mhpmevent7h,10
  46:	2f736563          	bltu	t1,s7,330 <_prog_start-0x40001cd0>
  4a:	6f62                	ld	t5,24(sp)
  4c:	4f52746f          	jal	s0,27d40 <_prog_start-0x3ffda2c0>
  50:	2f4d                	addiw	t5,t5,19
  52:	544d                	li	s0,-13
  54:	6f42                	ld	t5,16(sp)
  56:	6800746f          	jal	s0,76d6 <_prog_start-0x3fffa92a>
  5a:	6165                	addi	sp,sp,112
  5c:	2e64                	fld	fs1,216(a2)
  5e:	64730053          	.4byte	0x64730053
  62:	632e                	ld	t1,200(sp)
  64:	2f00                	fld	fs0,24(a4)
  66:	6f68                	ld	a0,216(a4)
  68:	656d                	lui	a0,0x1b
  6a:	6e69622f          	.4byte	0x6e69622f
  6e:	6b68                	ld	a0,208(a4)
  70:	6569                	lui	a0,0x1a
  72:	6475                	lui	s0,0x1d
  74:	6f572f6f          	jal	t5,72f68 <_prog_start-0x3ff8f098>
  78:	6b72                	ld	s6,280(sp)
  7a:	63617073          	csrci	0x636,2
  7e:	2f65                	addiw	t5,t5,25
  80:	6d74                	ld	a3,216(a0)
  82:	2f70                	fld	fa2,216(a4)
  84:	4348                	lw	a0,4(a4)
  86:	554d                	li	a0,-13
  88:	72505453          	.4byte	0x72505453
  8c:	63656a6f          	jal	s4,566c2 <_prog_start-0x3ffab93e>
  90:	2f74                	fld	fa3,216(a4)
  92:	632e                	ld	t1,200(sp)
  94:	61646e6f          	jal	t3,466aa <_prog_start-0x3ffbb956>
  98:	652d                	lui	a0,0xb
  9a:	766e                	ld	a2,248(sp)
  9c:	7369722f          	.4byte	0x7369722f
  a0:	742d7663          	bgeu	s10,sp,7ec <_prog_start-0x40001814>
  a4:	736c6f6f          	jal	t5,c67da <_prog_start-0x3ff3b826>
  a8:	7369722f          	.4byte	0x7369722f
  ac:	34367663          	bgeu	a2,gp,3f8 <_prog_start-0x40001c08>
  b0:	752d                	lui	a0,0xfffeb
  b2:	6b6e                	ld	s6,216(sp)
  b4:	6f6e                	ld	t5,216(sp)
  b6:	652d6e77          	.4byte	0x652d6e77
  ba:	666c                	ld	a1,200(a2)
  bc:	636e692f          	.4byte	0x636e692f
  c0:	756c                	ld	a1,232(a0)
  c2:	6564                	ld	s1,200(a0)
  c4:	63616d2f          	.4byte	0x63616d2f
  c8:	6968                	ld	a0,208(a0)
  ca:	656e                	ld	a0,216(sp)
  cc:	2f00                	fld	fs0,24(a4)
  ce:	6f68                	ld	a0,216(a4)
  d0:	656d                	lui	a0,0x1b
  d2:	6e69622f          	.4byte	0x6e69622f
  d6:	6b68                	ld	a0,208(a4)
  d8:	6569                	lui	a0,0x1a
  da:	6475                	lui	s0,0x1d
  dc:	6f572f6f          	jal	t5,72fd0 <_prog_start-0x3ff8f030>
  e0:	6b72                	ld	s6,280(sp)
  e2:	63617073          	csrci	0x636,2
  e6:	2f65                	addiw	t5,t5,25
  e8:	6d74                	ld	a3,216(a0)
  ea:	2f70                	fld	fa2,216(a4)
  ec:	4348                	lw	a0,4(a4)
  ee:	554d                	li	a0,-13
  f0:	72505453          	.4byte	0x72505453
  f4:	63656a6f          	jal	s4,5672a <_prog_start-0x3ffab8d6>
  f8:	2f74                	fld	fa3,216(a4)
  fa:	632e                	ld	t1,200(sp)
  fc:	61646e6f          	jal	t3,46712 <_prog_start-0x3ffbb8ee>
 100:	652d                	lui	a0,0xb
 102:	766e                	ld	a2,248(sp)
 104:	7369722f          	.4byte	0x7369722f
 108:	742d7663          	bgeu	s10,sp,854 <_prog_start-0x400017ac>
 10c:	736c6f6f          	jal	t5,c6842 <_prog_start-0x3ff3b7be>
 110:	7369722f          	.4byte	0x7369722f
 114:	34367663          	bgeu	a2,gp,460 <_prog_start-0x40001ba0>
 118:	752d                	lui	a0,0xfffeb
 11a:	6b6e                	ld	s6,216(sp)
 11c:	6f6e                	ld	t5,216(sp)
 11e:	652d6e77          	.4byte	0x652d6e77
 122:	666c                	ld	a1,200(a2)
 124:	636e692f          	.4byte	0x636e692f
 128:	756c                	ld	a1,232(a0)
 12a:	6564                	ld	s1,200(a0)
 12c:	7379732f          	.4byte	0x7379732f
 130:	5f00                	lw	s0,56(a4)
 132:	6564                	ld	s1,200(a0)
 134:	6166                	ld	sp,88(sp)
 136:	6c75                	lui	s8,0x1d
 138:	5f74                	lw	a3,124(a4)
 13a:	7974                	ld	a3,240(a0)
 13c:	6570                	ld	a2,200(a0)
 13e:	00682e73          	csrrs	t3,0x6,a6
 142:	735f 6474 6e69      	.byte	0x5f, 0x73, 0x74, 0x64, 0x69, 0x6e
 148:	2e74                	fld	fa3,216(a2)
 14a:	0068                	addi	a0,sp,12
 14c:	6972706b          	.4byte	0x6972706b
 150:	746e                	ld	s0,248(sp)
 152:	2e66                	fld	ft8,88(sp)
 154:	0068                	addi	a0,sp,12
 156:	6972706b          	.4byte	0x6972706b
 15a:	746e                	ld	s0,248(sp)
 15c:	2e66                	fld	ft8,88(sp)
 15e:	682f0063          	beq	t5,sp,7de <_prog_start-0x40001822>
 162:	2f656d6f          	jal	s10,56458 <_prog_start-0x3ffabba8>
 166:	6962                	ld	s2,24(sp)
 168:	686e                	ld	a6,216(sp)
 16a:	7565696b          	.4byte	0x7565696b
 16e:	6f64                	ld	s1,216(a4)
 170:	726f572f          	.4byte	0x726f572f
 174:	6170736b          	.4byte	0x6170736b
 178:	742f6563          	bltu	t5,sp,8c2 <_prog_start-0x4000173e>
 17c:	706d                	c.lui	zero,0xffffb
 17e:	4d43482f          	.4byte	0x4d43482f
 182:	5355                	li	t1,-11
 184:	5054                	lw	a3,36(s0)
 186:	6f72                	ld	t5,280(sp)
 188:	656a                	ld	a0,152(sp)
 18a:	2e2f7463          	bgeu	t5,sp,472 <_prog_start-0x40001b8e>
 18e:	646e6f63          	bltu	t3,t1,7ec <_prog_start-0x40001814>
 192:	2d61                	addiw	s10,s10,24
 194:	6e65                	lui	t3,0x19
 196:	2f76                	fld	ft10,344(sp)
 198:	6972                	ld	s2,280(sp)
 19a:	2d766373          	csrrsi	t1,0x2d7,12
 19e:	6f74                	ld	a3,216(a4)
 1a0:	2f736c6f          	jal	s8,36c96 <_prog_start-0x3ffcb36a>
 1a4:	696c                	ld	a1,208(a0)
 1a6:	2f62                	fld	ft10,24(sp)
 1a8:	2f636367          	.4byte	0x2f636367
 1ac:	6972                	ld	s2,280(sp)
 1ae:	36766373          	csrrsi	t1,0x367,12
 1b2:	2d34                	fld	fa3,88(a0)
 1b4:	6e75                	lui	t3,0x1d
 1b6:	776f6e6b          	.4byte	0x776f6e6b
 1ba:	2d6e                	fld	fs10,216(sp)
 1bc:	6c65                	lui	s8,0x19
 1be:	2f66                	fld	ft10,88(sp)
 1c0:	3231                	addiw	tp,tp,-20 # ffffffffffffffec <_sp+0xffffffff8fffefec>
 1c2:	322e                	fld	ft4,232(sp)
 1c4:	302e                	fld	ft0,232(sp)
 1c6:	636e692f          	.4byte	0x636e692f
 1ca:	756c                	ld	a1,232(a0)
 1cc:	6564                	ld	s1,200(a0)
 1ce:	7300                	ld	s0,32(a4)
 1d0:	6474                	ld	a3,200(s0)
 1d2:	7261                	lui	tp,0xffff8
 1d4:	00682e67          	.4byte	0x682e67

Disassembly of section .debug_info:

0000000000000000 <.debug_info>:
       0:	0024                	addi	s1,sp,8
       2:	0000                	unimp
       4:	0005                	c.nop	1
       6:	0801                	addi	a6,a6,0
       8:	0000                	unimp
       a:	0000                	unimp
       c:	0001                	nop
       e:	0000                	unimp
      10:	0000                	unimp
      12:	0020                	addi	s0,sp,8
      14:	0040                	addi	s0,sp,4
      16:	0000                	unimp
      18:	3c00                	fld	fs0,56(s0)
      1a:	0000                	unimp
      1c:	0000                	unimp
      1e:	00000007          	.4byte	0x7
      22:	0060                	addi	s0,sp,12
      24:	0000                	unimp
      26:	8001                	c.srli64	s0
      28:	102e                	c.slli	zero,0x2b
      2a:	0000                	unimp
      2c:	0005                	c.nop	1
      2e:	0801                	addi	a6,a6,0
      30:	0014                	.2byte	0x14
      32:	0000                	unimp
      34:	00007f1b          	.4byte	0x7f1b
      38:	1d00                	addi	s0,sp,688
      3a:	0060                	addi	s0,sp,12
      3c:	0000                	unimp
      3e:	0000                	unimp
      40:	0000                	unimp
      42:	000003b7          	lui	t2,0x0
	...
      4e:	0078                	addi	a4,sp,12
      50:	0000                	unimp
      52:	3406010b          	.4byte	0x3406010b
      56:	0001                	nop
      58:	0d00                	addi	s0,sp,656
      5a:	006c                	addi	a1,sp,12
      5c:	0000                	unimp
      5e:	2b02                	fld	fs6,0(sp)
      60:	3d18                	fld	fa4,56(a0)
      62:	0000                	unimp
      64:	0b00                	addi	s0,sp,400
      66:	0801                	addi	a6,a6,0
      68:	0132                	slli	sp,sp,0xc
      6a:	0000                	unimp
      6c:	cf05020b          	.4byte	0xcf05020b
      70:	0001                	nop
      72:	0d00                	addi	s0,sp,656
      74:	01d9                	addi	gp,gp,22
      76:	0000                	unimp
      78:	3902                	fld	fs2,32(sp)
      7a:	5719                	li	a4,-26
      7c:	0000                	unimp
      7e:	0b00                	addi	s0,sp,400
      80:	0702                	c.slli64	a4
      82:	0149                	addi	sp,sp,18
      84:	0000                	unimp
      86:	ff0d                	bnez	a4,ffffffffffffffc0 <_sp+0xffffffff8fffefc0>
      88:	0000                	unimp
      8a:	0200                	addi	s0,sp,256
      8c:	184d                	addi	a6,a6,-13
      8e:	006a                	c.slli	zero,0x1a
      90:	0000                	unimp
      92:	041c                	addi	a5,sp,512
      94:	6905                	lui	s2,0x1
      96:	746e                	ld	s0,248(sp)
      98:	0d00                	addi	s0,sp,656
      9a:	016a                	slli	sp,sp,0x1a
      9c:	0000                	unimp
      9e:	4f02                	lw	t5,0(sp)
      a0:	7d19                	lui	s10,0xfffe6
      a2:	0000                	unimp
      a4:	0b00                	addi	s0,sp,400
      a6:	0704                	addi	s1,sp,896
      a8:	00000197          	auipc	gp,0x0
      ac:	c605080b          	.4byte	0xc605080b
      b0:	0001                	nop
      b2:	0b00                	addi	s0,sp,400
      b4:	0708                	addi	a0,sp,896
      b6:	0192                	slli	gp,gp,0x4
      b8:	0000                	unimp
      ba:	6e0d                	lui	t3,0x3
      bc:	0000                	unimp
      be:	0300                	addi	s0,sp,384
      c0:	1318                	addi	a4,sp,416
      c2:	0031                	c.nop	12
      c4:	0000                	unimp
      c6:	00009213          	slli	tp,ra,0x0
      ca:	0d00                	addi	s0,sp,656
      cc:	000001db          	.4byte	0x1db
      d0:	4b142403          	lw	s0,1201(s0) # 1d4b1 <_prog_start-0x3ffe4b4f>
      d4:	0000                	unimp
      d6:	0d00                	addi	s0,sp,656
      d8:	0101                	addi	sp,sp,0
      da:	0000                	unimp
      dc:	5e132c03          	lw	s8,1505(t1)
      e0:	0000                	unimp
      e2:	0d00                	addi	s0,sp,656
      e4:	016c                	addi	a1,sp,140
      e6:	0000                	unimp
      e8:	71143003          	ld	zero,1809(s0)
      ec:	0000                	unimp
      ee:	1300                	addi	s0,sp,416
      f0:	000000bb          	addw	ra,zero,zero
      f4:	c105080b          	.4byte	0xc105080b
      f8:	0001                	nop
      fa:	0b00                	addi	s0,sp,400
      fc:	0410                	addi	a2,sp,512
      fe:	0201                	addi	tp,tp,0 # ffffffffffff8000 <_sp+0xffffffff8fff7000>
     100:	0000                	unimp
     102:	0000df0f          	.4byte	0xdf0f
     106:	0b00                	addi	s0,sp,400
     108:	0801                	addi	a6,a6,0
     10a:	0000013b          	addw	sp,zero,zero
     10e:	df10                	sw	a2,56(a4)
     110:	0000                	unimp
     112:	0f00                	addi	s0,sp,912
     114:	00e6                	slli	ra,ra,0x19
     116:	0000                	unimp
     118:	8d07080b          	.4byte	0x8d07080b
     11c:	0001                	nop
     11e:	1d00                	addi	s0,sp,688
     120:	01f4                	addi	a3,sp,204
     122:	0000                	unimp
     124:	1304                	addi	s1,sp,416
     126:	0c22                	slli	s8,s8,0x8
     128:	0001                	nop
     12a:	0000                	unimp
     12c:	0000                	unimp
     12e:	0f64                	addi	s1,sp,924
     130:	000000c7          	fmsub.s	ft1,ft0,ft0,ft0,rne
     134:	0710                	addi	a2,sp,896
     136:	0001                	nop
     138:	1e00                	addi	s0,sp,816
     13a:	00697073          	csrci	0x6,18
     13e:	2101                	sext.w	sp,sp
     140:	0c22                	slli	s8,s8,0x8
     142:	0001                	nop
     144:	0000                	unimp
     146:	0020                	addi	s0,sp,8
     148:	1f64                	addi	s1,sp,956
     14a:	00e6                	slli	ra,ra,0x19
     14c:	0000                	unimp
     14e:	0131                	addi	sp,sp,12
     150:	0000                	unimp
     152:	8b20                	.2byte	0x8b20
     154:	0000                	unimp
     156:	0300                	addi	s0,sp,384
     158:	1000                	addi	s0,sp,32
     15a:	0121                	addi	sp,sp,8
     15c:	0000                	unimp
     15e:	7a21                	lui	s4,0xfffe8
     160:	0001                	nop
     162:	0100                	addi	s0,sp,128
     164:	13b0                	addi	a2,sp,488
     166:	0131                	addi	sp,sp,12
     168:	0000                	unimp
     16a:	2d04                	fld	fs1,24(a0)
     16c:	145c7c2f          	.4byte	0x145c7c2f
     170:	01f9                	addi	gp,gp,30 # c6 <_prog_start-0x40001f3a>
     172:	0000                	unimp
     174:	00015827          	.4byte	0x15827
     178:	1500                	addi	s0,sp,672
     17a:	000000eb          	.4byte	0xeb
     17e:	0022                	c.slli	zero,0x8
     180:	6514                	ld	a3,8(a0)
     182:	0002                	c.slli64	zero
     184:	2600                	fld	fs0,8(a2)
     186:	0168                	addi	a0,sp,140
     188:	0000                	unimp
     18a:	eb15                	bnez	a4,1be <_prog_start-0x40001e42>
     18c:	0000                	unimp
     18e:	0000                	unimp
     190:	00017523          	.4byte	0x17523
     194:	0100                	addi	s0,sp,128
     196:	05e9                	addi	a1,a1,26
     198:	006a                	c.slli	zero,0x1a
     19a:	0000                	unimp
     19c:	20fa                	fld	ft1,408(sp)
     19e:	4000                	lw	s0,0(s0)
     1a0:	0000                	unimp
     1a2:	0000                	unimp
     1a4:	03de                	slli	t2,t2,0x17
     1a6:	0000                	unimp
     1a8:	0000                	unimp
     1aa:	0000                	unimp
     1ac:	9c01                	subw	s0,s0,s0
     1ae:	0c5e                	slli	s8,s8,0x17
     1b0:	0000                	unimp
     1b2:	e416                	sd	t0,8(sp)
     1b4:	0001                	nop
     1b6:	e900                	sd	s0,16(a0)
     1b8:	6a0e                	ld	s4,192(sp)
     1ba:	0000                	unimp
     1bc:	0c00                	addi	s0,sp,528
     1be:	0000                	unimp
     1c0:	1600                	addi	s0,sp,800
     1c2:	01b5                	addi	gp,gp,13
     1c4:	0000                	unimp
     1c6:	1be9                	addi	s7,s7,-6
     1c8:	0c5e                	slli	s8,s8,0x17
     1ca:	0000                	unimp
     1cc:	005f 0000 1c17      	.byte	0x5f, 0x00, 0x00, 0x00, 0x17, 0x1c
     1d2:	0002                	c.slli64	zero
     1d4:	ed00                	sd	s0,24(a0)
     1d6:	6a06                	ld	s4,64(sp)
     1d8:	0000                	unimp
     1da:	b200                	fsd	fs0,32(a2)
     1dc:	0000                	unimp
     1de:	2400                	fld	fs0,8(s0)
     1e0:	210e                	fld	ft2,192(sp)
     1e2:	4000                	lw	s0,0(s0)
     1e4:	0000                	unimp
     1e6:	0000                	unimp
     1e8:	0004                	.2byte	0x4
     1ea:	0000                	unimp
     1ec:	0000                	unimp
     1ee:	0000                	unimp
     1f0:	01dc                	addi	a5,sp,196
     1f2:	0000                	unimp
     1f4:	00016417          	auipc	s0,0x16
     1f8:	ed00                	sd	s0,24(a0)
     1fa:	8b10                	.2byte	0x8b10
     1fc:	0000                	unimp
     1fe:	1200                	addi	s0,sp,288
     200:	0001                	nop
     202:	0000                	unimp
     204:	000d8407          	.4byte	0xd8407
     208:	4200                	lw	s0,0(a2)
     20a:	0021                	c.nop	8
     20c:	0040                	addi	s0,sp,4
     20e:	0000                	unimp
     210:	8600                	.2byte	0x8600
     212:	0000                	unimp
     214:	f200                	sd	s0,32(a2)
     216:	4304                	lw	s1,0(a4)
     218:	0002                	c.slli64	zero
     21a:	0800                	addi	s0,sp,16
     21c:	0086                	slli	ra,ra,0x1
     21e:	0000                	unimp
     220:	9101                	srli	a0,a0,0x20
     222:	000d                	c.nop	3
     224:	2600                	fld	fs0,8(a2)
     226:	0001                	nop
     228:	0900                	addi	s0,sp,144
     22a:	0fd6                	slli	t6,t6,0x15
     22c:	0000                	unimp
     22e:	214c                	fld	fa1,128(a0)
     230:	4000                	lw	s0,0(s0)
     232:	0000                	unimp
     234:	0000                	unimp
     236:	00a9                	addi	ra,ra,10
     238:	0000                	unimp
     23a:	e309035b          	.4byte	0xe309035b
     23e:	4c00000f          	.4byte	0x4c00000f
     242:	0021                	c.nop	8
     244:	0040                	addi	s0,sp,4
     246:	0000                	unimp
     248:	a900                	fsd	fs0,16(a0)
     24a:	0000                	unimp
     24c:	3000                	fld	fs0,32(s0)
     24e:	0309                	addi	t1,t1,2
     250:	00000ff3          	.4byte	0xff3
     254:	0000013b          	addw	sp,zero,zero
     258:	a908                	fsd	fa0,16(a0)
     25a:	0000                	unimp
     25c:	0100                	addi	s0,sp,128
     25e:	0ffd                	addi	t6,t6,31
     260:	0000                	unimp
     262:	0151                	addi	sp,sp,20
     264:	0000                	unimp
     266:	0000                	unimp
     268:	0000                	unimp
     26a:	0700                	addi	s0,sp,896
     26c:	0d68                	addi	a0,sp,668
     26e:	0000                	unimp
     270:	2168                	fld	fa0,192(a0)
     272:	4000                	lw	s0,0(s0)
     274:	0000                	unimp
     276:	0000                	unimp
     278:	00ee                	slli	ra,ra,0x1b
     27a:	0000                	unimp
     27c:	030608f3          	.4byte	0x30608f3
     280:	0000                	unimp
     282:	ee08                	sd	a0,24(a2)
     284:	0000                	unimp
     286:	0100                	addi	s0,sp,128
     288:	0d78                	addi	a4,sp,668
     28a:	0000                	unimp
     28c:	0165                	addi	sp,sp,25
     28e:	0000                	unimp
     290:	9c04                	.2byte	0x9c04
     292:	000d                	c.nop	3
     294:	8600                	.2byte	0x8600
     296:	0021                	c.nop	8
     298:	0040                	addi	s0,sp,4
     29a:	0000                	unimp
     29c:	1400                	addi	s0,sp,544
     29e:	0000                	unimp
     2a0:	0000                	unimp
     2a2:	0000                	unimp
     2a4:	6600                	ld	s0,8(a2)
     2a6:	c602                	sw	zero,12(sp)
     2a8:	0002                	c.slli64	zero
     2aa:	0500                	addi	s0,sp,640
     2ac:	0fd6                	slli	t6,t6,0x15
     2ae:	0000                	unimp
     2b0:	2186                	fld	ft3,64(sp)
     2b2:	4000                	lw	s0,0(s0)
     2b4:	0000                	unimp
     2b6:	0000                	unimp
     2b8:	0010                	.2byte	0x10
     2ba:	0000                	unimp
     2bc:	0000                	unimp
     2be:	0000                	unimp
     2c0:	0250                	addi	a2,sp,260
     2c2:	e305                	bnez	a4,2e2 <_prog_start-0x40001d1e>
     2c4:	8600000f          	.4byte	0x8600000f
     2c8:	0021                	c.nop	8
     2ca:	0040                	addi	s0,sp,4
     2cc:	0000                	unimp
     2ce:	1000                	addi	s0,sp,32
     2d0:	0000                	unimp
     2d2:	0000                	unimp
     2d4:	0000                	unimp
     2d6:	3000                	fld	fs0,32(s0)
     2d8:	0309                	addi	t1,t1,2
     2da:	00000ff3          	.4byte	0xff3
     2de:	00000183          	lb	gp,0(zero) # 0 <_prog_start-0x40002000>
     2e2:	fd01                	bnez	a0,1fa <_prog_start-0x40001e06>
     2e4:	9900000f          	.4byte	0x9900000f
     2e8:	0001                	nop
     2ea:	0000                	unimp
     2ec:	0000                	unimp
     2ee:	780a                	ld	a6,160(sp)
     2f0:	0021                	c.nop	8
     2f2:	0040                	addi	s0,sp,4
     2f4:	0000                	unimp
     2f6:	5800                	lw	s0,48(s0)
     2f8:	0001                	nop
     2fa:	e500                	sd	s0,8(a0)
     2fc:	0002                	c.slli64	zero
     2fe:	0200                	addi	s0,sp,256
     300:	5a01                	li	s4,-32
     302:	0309                	addi	t1,t1,2
     304:	26a0                	fld	fs0,72(a3)
     306:	4000                	lw	s0,0(s0)
     308:	0000                	unimp
     30a:	0000                	unimp
     30c:	0c00                	addi	s0,sp,528
     30e:	2186                	fld	ft3,64(sp)
     310:	4000                	lw	s0,0(s0)
     312:	0000                	unimp
     314:	0000                	unimp
     316:	0da4                	addi	s1,sp,728
     318:	0000                	unimp
     31a:	0102                	c.slli64	sp
     31c:	025a                	slli	tp,tp,0x16
     31e:	4008                	lw	a0,0(s0)
     320:	0102                	c.slli64	sp
     322:	0230015b          	.4byte	0x230015b
     326:	5c01                	li	s8,-32
     328:	0902                	c.slli64	s2
     32a:	0095                	addi	ra,ra,5
     32c:	0000                	unimp
     32e:	4c04                	lw	s1,24(s0)
     330:	000d                	c.nop	3
     332:	a000                	fsd	fs0,0(s0)
     334:	0021                	c.nop	8
     336:	0040                	addi	s0,sp,4
     338:	0000                	unimp
     33a:	a200                	fsd	fs0,0(a2)
     33c:	0000                	unimp
     33e:	0000                	unimp
     340:	0000                	unimp
     342:	f400                	sd	s0,40(s0)
     344:	d905                	beqz	a0,274 <_prog_start-0x40001d8c>
     346:	0004                	.2byte	0x4
     348:	0100                	addi	s0,sp,128
     34a:	0d5c                	addi	a5,sp,660
     34c:	0000                	unimp
     34e:	01ad                	addi	gp,gp,11
     350:	0000                	unimp
     352:	000fd607          	.4byte	0xfd607
     356:	c200                	sw	s0,0(a2)
     358:	0021                	c.nop	8
     35a:	0040                	addi	s0,sp,4
     35c:	0000                	unimp
     35e:	1100                	addi	s0,sp,160
     360:	0001                	nop
     362:	7000                	ld	s0,32(s0)
     364:	6e02                	ld	t3,0(sp)
     366:	09000003          	lb	zero,144(zero) # 90 <_prog_start-0x40001f70>
     36a:	00000fe3          	beqz	zero,b88 <_prog_start-0x40001478>
     36e:	21c2                	fld	ft3,16(sp)
     370:	4000                	lw	s0,0(s0)
     372:	0000                	unimp
     374:	0000                	unimp
     376:	0111                	addi	sp,sp,4
     378:	0000                	unimp
     37a:	0930                	addi	a2,sp,152
     37c:	000ff303          	.4byte	0xff303
     380:	f900                	sd	s0,48(a0)
     382:	0001                	nop
     384:	0800                	addi	s0,sp,16
     386:	0111                	addi	sp,sp,4
     388:	0000                	unimp
     38a:	fd01                	bnez	a0,2a2 <_prog_start-0x40001d5e>
     38c:	0f00000f          	fence	iorw,unknown
     390:	0002                	c.slli64	zero
     392:	0000                	unimp
     394:	0000                	unimp
     396:	d604                	sw	s1,40(a2)
     398:	d600000f          	.4byte	0xd600000f
     39c:	0021                	c.nop	8
     39e:	0040                	addi	s0,sp,4
     3a0:	0000                	unimp
     3a2:	1000                	addi	s0,sp,32
     3a4:	0000                	unimp
     3a6:	0000                	unimp
     3a8:	0000                	unimp
     3aa:	7100                	ld	s0,32(a0)
     3ac:	b402                	fsd	ft0,40(sp)
     3ae:	05000003          	lb	zero,80(zero) # 50 <_prog_start-0x40001fb0>
     3b2:	00000fe3          	beqz	zero,bd0 <_prog_start-0x40001430>
     3b6:	21d6                	fld	ft3,336(sp)
     3b8:	4000                	lw	s0,0(s0)
     3ba:	0000                	unimp
     3bc:	0000                	unimp
     3be:	0010                	.2byte	0x10
     3c0:	0000                	unimp
     3c2:	0000                	unimp
     3c4:	0000                	unimp
     3c6:	0930                	addi	a2,sp,152
     3c8:	000ff303          	.4byte	0xff303
     3cc:	2300                	fld	fs0,0(a4)
     3ce:	0002                	c.slli64	zero
     3d0:	0100                	addi	s0,sp,128
     3d2:	0ffd                	addi	t6,t6,31
     3d4:	0000                	unimp
     3d6:	0239                	addi	tp,tp,14 # e <_prog_start-0x40001ff2>
     3d8:	0000                	unimp
     3da:	0000                	unimp
     3dc:	d604                	sw	s1,40(a2)
     3de:	e600000f          	.4byte	0xe600000f
     3e2:	0021                	c.nop	8
     3e4:	0040                	addi	s0,sp,4
     3e6:	0000                	unimp
     3e8:	1400                	addi	s0,sp,544
     3ea:	0000                	unimp
     3ec:	0000                	unimp
     3ee:	0000                	unimp
     3f0:	7200                	ld	s0,32(a2)
     3f2:	fa0a                	sd	sp,304(sp)
     3f4:	05000003          	lb	zero,80(zero) # 50 <_prog_start-0x40001fb0>
     3f8:	00000fe3          	beqz	zero,c16 <_prog_start-0x400013ea>
     3fc:	21e6                	fld	ft3,88(sp)
     3fe:	4000                	lw	s0,0(s0)
     400:	0000                	unimp
     402:	0000                	unimp
     404:	0014                	.2byte	0x14
     406:	0000                	unimp
     408:	0000                	unimp
     40a:	0000                	unimp
     40c:	0930                	addi	a2,sp,152
     40e:	000ff303          	.4byte	0xff303
     412:	4d00                	lw	s0,24(a0)
     414:	0002                	c.slli64	zero
     416:	0100                	addi	s0,sp,128
     418:	0ffd                	addi	t6,t6,31
     41a:	0000                	unimp
     41c:	00000263          	beqz	zero,420 <_prog_start-0x40001be0>
     420:	0000                	unimp
     422:	d604                	sw	s1,40(a2)
     424:	0400000f          	fence	o,unknown
     428:	0022                	c.slli	zero,0x8
     42a:	0040                	addi	s0,sp,4
     42c:	0000                	unimp
     42e:	1400                	addi	s0,sp,544
     430:	0000                	unimp
     432:	0000                	unimp
     434:	0000                	unimp
     436:	7300                	ld	s0,32(a4)
     438:	4009                	c.li	zero,2
     43a:	0004                	.2byte	0x4
     43c:	0500                	addi	s0,sp,640
     43e:	00000fe3          	beqz	zero,c5c <_prog_start-0x400013a4>
     442:	2204                	fld	fs1,0(a2)
     444:	4000                	lw	s0,0(s0)
     446:	0000                	unimp
     448:	0000                	unimp
     44a:	0014                	.2byte	0x14
     44c:	0000                	unimp
     44e:	0000                	unimp
     450:	0000                	unimp
     452:	0930                	addi	a2,sp,152
     454:	000ff303          	.4byte	0xff303
     458:	7700                	ld	s0,40(a4)
     45a:	0002                	c.slli64	zero
     45c:	0100                	addi	s0,sp,128
     45e:	0ffd                	addi	t6,t6,31
     460:	0000                	unimp
     462:	028d                	addi	t0,t0,3
     464:	0000                	unimp
     466:	0000                	unimp
     468:	000d9c07          	.4byte	0xd9c07
     46c:	2a00                	fld	fs0,16(a2)
     46e:	0022                	c.slli	zero,0x8
     470:	0040                	addi	s0,sp,4
     472:	0000                	unimp
     474:	3400                	fld	fs0,40(s0)
     476:	0001                	nop
     478:	7400                	ld	s0,40(s0)
     47a:	9802                	jalr	a6
     47c:	0004                	.2byte	0x4
     47e:	0900                	addi	s0,sp,144
     480:	0fd6                	slli	t6,t6,0x15
     482:	0000                	unimp
     484:	222a                	fld	ft4,136(sp)
     486:	4000                	lw	s0,0(s0)
     488:	0000                	unimp
     48a:	0000                	unimp
     48c:	00000157          	.4byte	0x157
     490:	0250                	addi	a2,sp,260
     492:	e309                	bnez	a4,494 <_prog_start-0x40001b6c>
     494:	2a00000f          	.4byte	0x2a00000f
     498:	0022                	c.slli	zero,0x8
     49a:	0040                	addi	s0,sp,4
     49c:	0000                	unimp
     49e:	5700                	lw	s0,40(a4)
     4a0:	0001                	nop
     4a2:	3000                	fld	fs0,32(s0)
     4a4:	0309                	addi	t1,t1,2
     4a6:	00000ff3          	.4byte	0xff3
     4aa:	02a1                	addi	t0,t0,8
     4ac:	0000                	unimp
     4ae:	5708                	lw	a0,40(a4)
     4b0:	0001                	nop
     4b2:	0100                	addi	s0,sp,128
     4b4:	0ffd                	addi	t6,t6,31
     4b6:	0000                	unimp
     4b8:	000002b7          	lui	t0,0x0
     4bc:	0000                	unimp
     4be:	0000                	unimp
     4c0:	ac0a                	fsd	ft2,24(sp)
     4c2:	0021                	c.nop	8
     4c4:	0040                	addi	s0,sp,4
     4c6:	0000                	unimp
     4c8:	5800                	lw	s0,48(s0)
     4ca:	0001                	nop
     4cc:	b700                	fsd	fs0,40(a4)
     4ce:	0004                	.2byte	0x4
     4d0:	0200                	addi	s0,sp,256
     4d2:	5a01                	li	s4,-32
     4d4:	0309                	addi	t1,t1,2
     4d6:	26a8                	fld	fa0,72(a3)
     4d8:	4000                	lw	s0,0(s0)
     4da:	0000                	unimp
     4dc:	0000                	unimp
     4de:	0c00                	addi	s0,sp,528
     4e0:	21bc                	fld	fa5,64(a1)
     4e2:	4000                	lw	s0,0(s0)
     4e4:	0000                	unimp
     4e6:	0000                	unimp
     4e8:	0da4                	addi	s1,sp,728
     4ea:	0000                	unimp
     4ec:	0102                	c.slli64	sp
     4ee:	025a                	slli	tp,tp,0x16
     4f0:	4808                	lw	a0,16(s0)
     4f2:	0102                	c.slli64	sp
     4f4:	aa0a035b          	.4byte	0xaa0a035b
     4f8:	0201                	addi	tp,tp,0 # 0 <_prog_start-0x40002000>
     4fa:	5c01                	li	s8,-32
     4fc:	0902                	c.slli64	s2
     4fe:	04000087          	.4byte	0x4000087
     502:	0d29                	addi	s10,s10,10 # fffffffffffe600a <_sp+0xffffffff8ffe500a>
     504:	0000                	unimp
     506:	2254                	fld	fa3,128(a2)
     508:	4000                	lw	s0,0(s0)
     50a:	0000                	unimp
     50c:	0000                	unimp
     50e:	0046                	c.slli	zero,0x11
     510:	0000                	unimp
     512:	0000                	unimp
     514:	0000                	unimp
     516:	05f5                	addi	a1,a1,29
     518:	05cd                	addi	a1,a1,19
     51a:	0000                	unimp
     51c:	3901                	addiw	s2,s2,-32 # fe0 <_prog_start-0x40001020>
     51e:	000d                	c.nop	3
     520:	cb00                	sw	s0,16(a4)
     522:	0002                	c.slli64	zero
     524:	0700                	addi	s0,sp,896
     526:	0d44                	addi	s1,sp,660
     528:	0000                	unimp
     52a:	2260                	fld	fs0,192(a2)
     52c:	4000                	lw	s0,0(s0)
     52e:	0000                	unimp
     530:	0000                	unimp
     532:	017a                	slli	sp,sp,0x1e
     534:	0000                	unimp
     536:	0385                	addi	t2,t2,1 # 1 <_prog_start-0x40001fff>
     538:	058c                	addi	a1,sp,704
     53a:	0000                	unimp
     53c:	000d9c07          	.4byte	0xd9c07
     540:	6000                	ld	s0,0(s0)
     542:	0022                	c.slli	zero,0x8
     544:	0040                	addi	s0,sp,4
     546:	0000                	unimp
     548:	9d00                	.2byte	0x9d00
     54a:	0001                	nop
     54c:	7c00                	ld	s0,56(s0)
     54e:	6c02                	ld	s8,0(sp)
     550:	0005                	c.nop	1
     552:	0900                	addi	s0,sp,144
     554:	0fd6                	slli	t6,t6,0x15
     556:	0000                	unimp
     558:	2260                	fld	fs0,192(a2)
     55a:	4000                	lw	s0,0(s0)
     55c:	0000                	unimp
     55e:	0000                	unimp
     560:	01c0                	addi	s0,sp,196
     562:	0000                	unimp
     564:	0250                	addi	a2,sp,260
     566:	e309                	bnez	a4,568 <_prog_start-0x40001a98>
     568:	6000000f          	.4byte	0x6000000f
     56c:	0022                	c.slli	zero,0x8
     56e:	0040                	addi	s0,sp,4
     570:	0000                	unimp
     572:	c000                	sw	s0,0(s0)
     574:	0001                	nop
     576:	3000                	fld	fs0,32(s0)
     578:	0309                	addi	t1,t1,2
     57a:	00000ff3          	.4byte	0xff3
     57e:	02df 0000 c008      	.byte	0xdf, 0x02, 0x00, 0x00, 0x08, 0xc0
     584:	0001                	nop
     586:	0100                	addi	s0,sp,128
     588:	0ffd                	addi	t6,t6,31
     58a:	0000                	unimp
     58c:	02f5                	addi	t0,t0,29 # 1d <_prog_start-0x40001fe3>
     58e:	0000                	unimp
     590:	0000                	unimp
     592:	0000                	unimp
     594:	780c                	ld	a1,48(s0)
     596:	0022                	c.slli	zero,0x8
     598:	0040                	addi	s0,sp,4
     59a:	0000                	unimp
     59c:	a400                	fsd	fs0,8(s0)
     59e:	000d                	c.nop	3
     5a0:	0200                	addi	s0,sp,256
     5a2:	5a01                	li	s4,-32
     5a4:	0802                	c.slli64	a6
     5a6:	5b010277          	.4byte	0x5b010277
     5aa:	3001                	.2byte	0x3001
     5ac:	0102                	c.slli64	sp
     5ae:	025c                	addi	a5,sp,260
     5b0:	6508                	ld	a0,8(a0)
     5b2:	0000                	unimp
     5b4:	600a                	.2byte	0x600a
     5b6:	0022                	c.slli	zero,0x8
     5b8:	0040                	addi	s0,sp,4
     5ba:	0000                	unimp
     5bc:	5800                	lw	s0,48(s0)
     5be:	0001                	nop
     5c0:	ab00                	fsd	fs0,16(a4)
     5c2:	0005                	c.nop	1
     5c4:	0200                	addi	s0,sp,256
     5c6:	5a01                	li	s4,-32
     5c8:	0309                	addi	t1,t1,2
     5ca:	26b0                	fld	fa2,72(a3)
     5cc:	4000                	lw	s0,0(s0)
     5ce:	0000                	unimp
     5d0:	0000                	unimp
     5d2:	0c00                	addi	s0,sp,528
     5d4:	2296                	fld	ft5,320(sp)
     5d6:	4000                	lw	s0,0(s0)
     5d8:	0000                	unimp
     5da:	0000                	unimp
     5dc:	0da4                	addi	s1,sp,728
     5de:	0000                	unimp
     5e0:	0102                	c.slli64	sp
     5e2:	025a                	slli	tp,tp,0x16
     5e4:	6908                	ld	a0,16(a0)
     5e6:	0102                	c.slli64	sp
     5e8:	4a40035b          	.4byte	0x4a40035b
     5ec:	0224                	addi	s1,sp,264
     5ee:	5c01                	li	s8,-32
     5f0:	0802                	c.slli64	a6
     5f2:	04000077          	.4byte	0x4000077
     5f6:	0d0d                	addi	s10,s10,3
     5f8:	0000                	unimp
     5fa:	229c                	fld	fa5,0(a3)
     5fc:	4000                	lw	s0,0(s0)
     5fe:	0000                	unimp
     600:	0000                	unimp
     602:	0082                	c.slli64	ra
     604:	0000                	unimp
     606:	0000                	unimp
     608:	0000                	unimp
     60a:	05f6                	slli	a1,a1,0x1d
     60c:	07a4                	addi	s1,sp,968
     60e:	0000                	unimp
     610:	1d01                	addi	s10,s10,-32
     612:	000d                	c.nop	3
     614:	0900                	addi	s0,sp,144
     616:	07000003          	lb	zero,112(zero) # 70 <_prog_start-0x40001f90>
     61a:	0fd6                	slli	t6,t6,0x15
     61c:	0000                	unimp
     61e:	22b6                	fld	ft5,328(sp)
     620:	4000                	lw	s0,0(s0)
     622:	0000                	unimp
     624:	0000                	unimp
     626:	000001e3          	beqz	zero,e28 <_prog_start-0x400011d8>
     62a:	0a91                	addi	s5,s5,4
     62c:	0635                	addi	a2,a2,13
     62e:	0000                	unimp
     630:	e309                	bnez	a4,632 <_prog_start-0x400019ce>
     632:	b600000f          	.4byte	0xb600000f
     636:	0022                	c.slli	zero,0x8
     638:	0040                	addi	s0,sp,4
     63a:	0000                	unimp
     63c:	e300                	sd	s0,0(a4)
     63e:	0001                	nop
     640:	3000                	fld	fs0,32(s0)
     642:	0309                	addi	t1,t1,2
     644:	00000ff3          	.4byte	0xff3
     648:	0322                	slli	t1,t1,0x8
     64a:	0000                	unimp
     64c:	e308                	sd	a0,0(a4)
     64e:	0001                	nop
     650:	0100                	addi	s0,sp,128
     652:	0ffd                	addi	t6,t6,31
     654:	0000                	unimp
     656:	0338                	addi	a4,sp,392
     658:	0000                	unimp
     65a:	0000                	unimp
     65c:	0400                	addi	s0,sp,512
     65e:	0fd6                	slli	t6,t6,0x15
     660:	0000                	unimp
     662:	22da                	fld	ft5,400(sp)
     664:	4000                	lw	s0,0(s0)
     666:	0000                	unimp
     668:	0000                	unimp
     66a:	0010                	.2byte	0x10
     66c:	0000                	unimp
     66e:	0000                	unimp
     670:	0000                	unimp
     672:	0292                	slli	t0,t0,0x4
     674:	0000067b          	.4byte	0x67b
     678:	e305                	bnez	a4,698 <_prog_start-0x40001968>
     67a:	da00000f          	.4byte	0xda00000f
     67e:	0022                	c.slli	zero,0x8
     680:	0040                	addi	s0,sp,4
     682:	0000                	unimp
     684:	1000                	addi	s0,sp,32
     686:	0000                	unimp
     688:	0000                	unimp
     68a:	0000                	unimp
     68c:	3000                	fld	fs0,32(s0)
     68e:	0309                	addi	t1,t1,2
     690:	00000ff3          	.4byte	0xff3
     694:	034c                	addi	a1,sp,388
     696:	0000                	unimp
     698:	fd01                	bnez	a0,5b0 <_prog_start-0x40001a50>
     69a:	6200000f          	.4byte	0x6200000f
     69e:	00000003          	lb	zero,0(zero) # 0 <_prog_start-0x40002000>
     6a2:	0400                	addi	s0,sp,512
     6a4:	0fd6                	slli	t6,t6,0x15
     6a6:	0000                	unimp
     6a8:	22ea                	fld	ft5,152(sp)
     6aa:	4000                	lw	s0,0(s0)
     6ac:	0000                	unimp
     6ae:	0000                	unimp
     6b0:	0010                	.2byte	0x10
     6b2:	0000                	unimp
     6b4:	0000                	unimp
     6b6:	0000                	unimp
     6b8:	06c10293          	addi	t0,sp,108
     6bc:	0000                	unimp
     6be:	e305                	bnez	a4,6de <_prog_start-0x40001922>
     6c0:	ea00000f          	.4byte	0xea00000f
     6c4:	0022                	c.slli	zero,0x8
     6c6:	0040                	addi	s0,sp,4
     6c8:	0000                	unimp
     6ca:	1000                	addi	s0,sp,32
     6cc:	0000                	unimp
     6ce:	0000                	unimp
     6d0:	0000                	unimp
     6d2:	3000                	fld	fs0,32(s0)
     6d4:	0309                	addi	t1,t1,2
     6d6:	00000ff3          	.4byte	0xff3
     6da:	0376                	slli	t1,t1,0x1d
     6dc:	0000                	unimp
     6de:	fd01                	bnez	a0,5f6 <_prog_start-0x40001a0a>
     6e0:	8c00000f          	.4byte	0x8c00000f
     6e4:	00000003          	lb	zero,0(zero) # 0 <_prog_start-0x40002000>
     6e8:	0400                	addi	s0,sp,512
     6ea:	0fd6                	slli	t6,t6,0x15
     6ec:	0000                	unimp
     6ee:	22fa                	fld	ft5,408(sp)
     6f0:	4000                	lw	s0,0(s0)
     6f2:	0000                	unimp
     6f4:	0000                	unimp
     6f6:	0010                	.2byte	0x10
     6f8:	0000                	unimp
     6fa:	0000                	unimp
     6fc:	0000                	unimp
     6fe:	0294                	addi	a3,sp,320
     700:	00000707          	.4byte	0x707
     704:	e305                	bnez	a4,724 <_prog_start-0x400018dc>
     706:	fa00000f          	.4byte	0xfa00000f
     70a:	0022                	c.slli	zero,0x8
     70c:	0040                	addi	s0,sp,4
     70e:	0000                	unimp
     710:	1000                	addi	s0,sp,32
     712:	0000                	unimp
     714:	0000                	unimp
     716:	0000                	unimp
     718:	3000                	fld	fs0,32(s0)
     71a:	0309                	addi	t1,t1,2
     71c:	00000ff3          	.4byte	0xff3
     720:	03a0                	addi	s0,sp,456
     722:	0000                	unimp
     724:	fd01                	bnez	a0,63c <_prog_start-0x400019c4>
     726:	b600000f          	.4byte	0xb600000f
     72a:	00000003          	lb	zero,0(zero) # 0 <_prog_start-0x40002000>
     72e:	0400                	addi	s0,sp,512
     730:	0d9c                	addi	a5,sp,720
     732:	0000                	unimp
     734:	230a                	fld	ft6,128(sp)
     736:	4000                	lw	s0,0(s0)
     738:	0000                	unimp
     73a:	0000                	unimp
     73c:	0014                	.2byte	0x14
     73e:	0000                	unimp
     740:	0000                	unimp
     742:	0000                	unimp
     744:	0295                	addi	t0,t0,5
     746:	0765                	addi	a4,a4,25
     748:	0000                	unimp
     74a:	d605                	beqz	a2,672 <_prog_start-0x4000198e>
     74c:	0a00000f          	fence	ir,unknown
     750:	00400023          	sb	tp,0(zero) # 0 <_prog_start-0x40002000>
     754:	0000                	unimp
     756:	1000                	addi	s0,sp,32
     758:	0000                	unimp
     75a:	0000                	unimp
     75c:	0000                	unimp
     75e:	5000                	lw	s0,32(s0)
     760:	0502                	c.slli64	a0
     762:	00000fe3          	beqz	zero,f80 <_prog_start-0x40001080>
     766:	230a                	fld	ft6,128(sp)
     768:	4000                	lw	s0,0(s0)
     76a:	0000                	unimp
     76c:	0000                	unimp
     76e:	0010                	.2byte	0x10
     770:	0000                	unimp
     772:	0000                	unimp
     774:	0000                	unimp
     776:	0930                	addi	a2,sp,152
     778:	000ff303          	.4byte	0xff303
     77c:	ca00                	sw	s0,16(a2)
     77e:	01000003          	lb	zero,16(zero) # 10 <_prog_start-0x40001ff0>
     782:	0ffd                	addi	t6,t6,31
     784:	0000                	unimp
     786:	03e0                	addi	s0,sp,460
     788:	0000                	unimp
     78a:	0000                	unimp
     78c:	0a00                	addi	s0,sp,272
     78e:	22a8                	fld	fa0,64(a3)
     790:	4000                	lw	s0,0(s0)
     792:	0000                	unimp
     794:	0000                	unimp
     796:	0158                	addi	a4,sp,132
     798:	0000                	unimp
     79a:	0784                	addi	s1,sp,960
     79c:	0000                	unimp
     79e:	0102                	c.slli64	sp
     7a0:	095a                	slli	s2,s2,0x16
     7a2:	0026b803          	ld	a6,2(a3)
     7a6:	0040                	addi	s0,sp,4
     7a8:	0000                	unimp
     7aa:	0000                	unimp
     7ac:	b60c                	fsd	fa1,40(a2)
     7ae:	0022                	c.slli	zero,0x8
     7b0:	0040                	addi	s0,sp,4
     7b2:	0000                	unimp
     7b4:	a400                	fsd	fs0,8(s0)
     7b6:	000d                	c.nop	3
     7b8:	0200                	addi	s0,sp,256
     7ba:	5a01                	li	s4,-32
     7bc:	0802                	c.slli64	a6
     7be:	027a                	slli	tp,tp,0x1e
     7c0:	5b01                	li	s6,-32
     7c2:	3001                	.2byte	0x3001
     7c4:	0102                	c.slli64	sp
     7c6:	025c                	addi	a5,sp,260
     7c8:	fd09                	bnez	a0,6e2 <_prog_start-0x4000191e>
     7ca:	0000                	unimp
     7cc:	f104                	sd	s1,32(a0)
     7ce:	000c                	.2byte	0xc
     7d0:	2000                	fld	fs0,0(s0)
     7d2:	00400023          	sb	tp,0(zero) # 0 <_prog_start-0x40002000>
     7d6:	0000                	unimp
     7d8:	3000                	fld	fs0,32(s0)
     7da:	0000                	unimp
     7dc:	0000                	unimp
     7de:	0000                	unimp
     7e0:	f700                	sd	s0,40(a4)
     7e2:	6005                	c.lui	zero,0x1
     7e4:	0008                	.2byte	0x8
     7e6:	0100                	addi	s0,sp,128
     7e8:	0d01                	addi	s10,s10,0
     7ea:	0000                	unimp
     7ec:	03f4                	addi	a3,sp,460
     7ee:	0000                	unimp
     7f0:	000d9c07          	.4byte	0xd9c07
     7f4:	3a00                	fld	fs0,48(a2)
     7f6:	00400023          	sb	tp,0(zero) # 0 <_prog_start-0x40002000>
     7fa:	0000                	unimp
     7fc:	0600                	addi	s0,sp,768
     7fe:	0002                	c.slli64	zero
     800:	9f00                	.2byte	0x9f00
     802:	2002                	fld	ft0,0(sp)
     804:	0008                	.2byte	0x8
     806:	0900                	addi	s0,sp,144
     808:	0fd6                	slli	t6,t6,0x15
     80a:	0000                	unimp
     80c:	233a                	fld	ft6,392(sp)
     80e:	4000                	lw	s0,0(s0)
     810:	0000                	unimp
     812:	0000                	unimp
     814:	0229                	addi	tp,tp,10 # a <_prog_start-0x40001ff6>
     816:	0000                	unimp
     818:	0250                	addi	a2,sp,260
     81a:	e309                	bnez	a4,81c <_prog_start-0x400017e4>
     81c:	3a00000f          	.4byte	0x3a00000f
     820:	00400023          	sb	tp,0(zero) # 0 <_prog_start-0x40002000>
     824:	0000                	unimp
     826:	2900                	fld	fs0,16(a0)
     828:	0002                	c.slli64	zero
     82a:	3000                	fld	fs0,32(s0)
     82c:	0309                	addi	t1,t1,2
     82e:	00000ff3          	.4byte	0xff3
     832:	0412                	slli	s0,s0,0x4
     834:	0000                	unimp
     836:	2908                	fld	fa0,16(a0)
     838:	0002                	c.slli64	zero
     83a:	0100                	addi	s0,sp,128
     83c:	0ffd                	addi	t6,t6,31
     83e:	0000                	unimp
     840:	0428                	addi	a0,sp,520
     842:	0000                	unimp
     844:	0000                	unimp
     846:	0000                	unimp
     848:	2c0a                	fld	fs8,128(sp)
     84a:	00400023          	sb	tp,0(zero) # 0 <_prog_start-0x40002000>
     84e:	0000                	unimp
     850:	5800                	lw	s0,48(s0)
     852:	0001                	nop
     854:	3f00                	fld	fs0,56(a4)
     856:	0008                	.2byte	0x8
     858:	0200                	addi	s0,sp,256
     85a:	5a01                	li	s4,-32
     85c:	0309                	addi	t1,t1,2
     85e:	26c0                	fld	fs0,136(a3)
     860:	4000                	lw	s0,0(s0)
     862:	0000                	unimp
     864:	0000                	unimp
     866:	0c00                	addi	s0,sp,528
     868:	233a                	fld	ft6,392(sp)
     86a:	4000                	lw	s0,0(s0)
     86c:	0000                	unimp
     86e:	0000                	unimp
     870:	0da4                	addi	s1,sp,728
     872:	0000                	unimp
     874:	0102                	c.slli64	sp
     876:	025a                	slli	tp,tp,0x16
     878:	5008                	lw	a0,32(s0)
     87a:	0102                	c.slli64	sp
     87c:	000a035b          	.4byte	0xa035b
     880:	0202                	c.slli64	tp
     882:	5c01                	li	s8,-32
     884:	4501                	li	a0,0
     886:	0000                	unimp
     888:	000c6307          	.4byte	0xc6307
     88c:	5400                	lw	s0,40(s0)
     88e:	00400023          	sb	tp,0(zero) # 0 <_prog_start-0x40002000>
     892:	0000                	unimp
     894:	4c00                	lw	s0,24(s0)
     896:	0002                	c.slli64	zero
     898:	f800                	sd	s0,48(s0)
     89a:	e505                	bnez	a0,8c2 <_prog_start-0x4000173e>
     89c:	0800000b          	.4byte	0x800000b
     8a0:	024c                	addi	a1,sp,260
     8a2:	0000                	unimp
     8a4:	7301                	lui	t1,0xfffe0
     8a6:	000c                	.2byte	0xc
     8a8:	3c00                	fld	fs0,56(s0)
     8aa:	0004                	.2byte	0x4
     8ac:	0100                	addi	s0,sp,128
     8ae:	0c7d                	addi	s8,s8,31 # 1901f <_prog_start-0x3ffe8fe1>
     8b0:	0000                	unimp
     8b2:	04b5                	addi	s1,s1,13
     8b4:	0000                	unimp
     8b6:	8701                	c.srai64	a4
     8b8:	000c                	.2byte	0xc
     8ba:	de00                	sw	s0,56(a2)
     8bc:	0004                	.2byte	0x4
     8be:	1800                	addi	s0,sp,48
     8c0:	0c92                	slli	s9,s9,0x4
     8c2:	0000                	unimp
     8c4:	0000026f          	jal	tp,8c4 <_prog_start-0x4000173c>
     8c8:	0a28                	addi	a0,sp,280
     8ca:	0000                	unimp
     8cc:	9301                	srli	a4,a4,0x20
     8ce:	000c                	.2byte	0xc
     8d0:	4200                	lw	s0,0(a2)
     8d2:	0005                	c.nop	1
     8d4:	0100                	addi	s0,sp,128
     8d6:	0c9f 0000 0590      	.byte	0x9f, 0x0c, 0x00, 0x00, 0x90, 0x05
     8dc:	0000                	unimp
     8de:	ab01                	j	dee <_prog_start-0x40001212>
     8e0:	000c                	.2byte	0xc
     8e2:	da00                	sw	s0,48(a2)
     8e4:	0005                	c.nop	1
     8e6:	1800                	addi	s0,sp,48
     8e8:	0cb5                	addi	s9,s9,13
     8ea:	0000                	unimp
     8ec:	02b4                	addi	a3,sp,328
     8ee:	0000                	unimp
     8f0:	093c                	addi	a5,sp,152
     8f2:	0000                	unimp
     8f4:	b601                	j	3f4 <_prog_start-0x40001c0c>
     8f6:	000c                	.2byte	0xc
     8f8:	f100                	sd	s0,32(a0)
     8fa:	0005                	c.nop	1
     8fc:	0700                	addi	s0,sp,896
     8fe:	0cc8                	addi	a0,sp,596
     900:	0000                	unimp
     902:	238c                	fld	fa1,0(a5)
     904:	4000                	lw	s0,0(s0)
     906:	0000                	unimp
     908:	0000                	unimp
     90a:	030a                	slli	t1,t1,0x2
     90c:	0000                	unimp
     90e:	08fb0acf          	fnmadd.s	fs5,fs6,fa5,ft1,rne
     912:	0000                	unimp
     914:	000ce403          	lwu	s0,0(s9)
     918:	0500                	addi	s0,sp,640
     91a:	0006                	c.slli	zero,0x1
     91c:	2500                	fld	fs0,8(a0)
     91e:	0cd8                	addi	a4,sp,596
     920:	0000                	unimp
     922:	0900                	addi	s0,sp,144
     924:	0fd6                	slli	t6,t6,0x15
     926:	0000                	unimp
     928:	23ca                	fld	ft7,144(sp)
     92a:	4000                	lw	s0,0(s0)
     92c:	0000                	unimp
     92e:	0000                	unimp
     930:	0000034f          	fnmadd.s	ft6,ft0,ft0,ft0,rne
     934:	10cd                	addi	ra,ra,-13
     936:	e309                	bnez	a4,938 <_prog_start-0x400016c8>
     938:	ca00000f          	.4byte	0xca00000f
     93c:	00400023          	sb	tp,0(zero) # 0 <_prog_start-0x40002000>
     940:	0000                	unimp
     942:	4f00                	lw	s0,24(a4)
     944:	30000003          	lb	zero,768(zero) # 300 <_prog_start-0x40001d00>
     948:	0309                	addi	t1,t1,2 # fffffffffffe0002 <_sp+0xffffffff8ffdf002>
     94a:	00000ff3          	.4byte	0xff3
     94e:	0619                	addi	a2,a2,6
     950:	0000                	unimp
     952:	4f08                	lw	a0,24(a4)
     954:	01000003          	lb	zero,16(zero) # 10 <_prog_start-0x40001ff0>
     958:	0ffd                	addi	t6,t6,31
     95a:	0000                	unimp
     95c:	0000062f          	.4byte	0x62f
     960:	0000                	unimp
     962:	0000                	unimp
     964:	000fd607          	.4byte	0xfd607
     968:	9200                	.2byte	0x9200
     96a:	00400023          	sb	tp,0(zero) # 0 <_prog_start-0x40002000>
     96e:	0000                	unimp
     970:	7200                	ld	s0,32(a2)
     972:	cb000003          	lb	zero,-848(zero) # fffffffffffffcb0 <_sp+0xffffffff8fffecb0>
     976:	800a                	c.mv	zero,sp
     978:	0009                	c.nop	2
     97a:	0900                	addi	s0,sp,144
     97c:	00000fe3          	beqz	zero,119a <_prog_start-0x40000e66>
     980:	2392                	fld	ft7,256(sp)
     982:	4000                	lw	s0,0(s0)
     984:	0000                	unimp
     986:	0000                	unimp
     988:	0372                	slli	t1,t1,0x1c
     98a:	0000                	unimp
     98c:	0930                	addi	a2,sp,152
     98e:	000ff303          	.4byte	0xff303
     992:	4300                	lw	s0,0(a4)
     994:	0006                	c.slli	zero,0x1
     996:	0800                	addi	s0,sp,16
     998:	0372                	slli	t1,t1,0x1c
     99a:	0000                	unimp
     99c:	fd01                	bnez	a0,8b4 <_prog_start-0x4000174c>
     99e:	5900000f          	.4byte	0x5900000f
     9a2:	0006                	c.slli	zero,0x1
     9a4:	0000                	unimp
     9a6:	0000                	unimp
     9a8:	d604                	sw	s1,40(a2)
     9aa:	2600000f          	.4byte	0x2600000f
     9ae:	0024                	addi	s1,sp,8
     9b0:	0040                	addi	s0,sp,4
     9b2:	0000                	unimp
     9b4:	0e00                	addi	s0,sp,784
     9b6:	0000                	unimp
     9b8:	0000                	unimp
     9ba:	0000                	unimp
     9bc:	d200                	sw	s0,32(a2)
     9be:	c618                	sw	a4,8(a2)
     9c0:	0009                	c.nop	2
     9c2:	0500                	addi	s0,sp,640
     9c4:	00000fe3          	beqz	zero,11e2 <_prog_start-0x40000e1e>
     9c8:	2426                	fld	fs0,72(sp)
     9ca:	4000                	lw	s0,0(s0)
     9cc:	0000                	unimp
     9ce:	0000                	unimp
     9d0:	000e                	c.slli	zero,0x3
     9d2:	0000                	unimp
     9d4:	0000                	unimp
     9d6:	0000                	unimp
     9d8:	0930                	addi	a2,sp,152
     9da:	000ff303          	.4byte	0xff303
     9de:	6d00                	ld	s0,24(a0)
     9e0:	0006                	c.slli	zero,0x1
     9e2:	0100                	addi	s0,sp,128
     9e4:	0ffd                	addi	t6,t6,31
     9e6:	0000                	unimp
     9e8:	00000683          	lb	a3,0(zero) # 0 <_prog_start-0x40002000>
     9ec:	0000                	unimp
     9ee:	d604                	sw	s1,40(a2)
     9f0:	4000000f          	.4byte	0x4000000f
     9f4:	0024                	addi	s1,sp,8
     9f6:	0040                	addi	s0,sp,4
     9f8:	0000                	unimp
     9fa:	0e00                	addi	s0,sp,784
     9fc:	0000                	unimp
     9fe:	0000                	unimp
     a00:	0000                	unimp
     a02:	d300                	sw	s0,32(a4)
     a04:	0c0e                	slli	s8,s8,0x3
     a06:	000a                	c.slli	zero,0x2
     a08:	0500                	addi	s0,sp,640
     a0a:	00000fe3          	beqz	zero,1228 <_prog_start-0x40000dd8>
     a0e:	2440                	fld	fs0,136(s0)
     a10:	4000                	lw	s0,0(s0)
     a12:	0000                	unimp
     a14:	0000                	unimp
     a16:	000e                	c.slli	zero,0x3
     a18:	0000                	unimp
     a1a:	0000                	unimp
     a1c:	0000                	unimp
     a1e:	0930                	addi	a2,sp,152
     a20:	000ff303          	.4byte	0xff303
     a24:	9700                	.2byte	0x9700
     a26:	0006                	c.slli	zero,0x1
     a28:	0100                	addi	s0,sp,128
     a2a:	0ffd                	addi	t6,t6,31
     a2c:	0000                	unimp
     a2e:	06ad                	addi	a3,a3,11
     a30:	0000                	unimp
     a32:	0000                	unimp
     a34:	be0c                	fsd	fa1,56(a2)
     a36:	0024                	addi	s1,sp,8
     a38:	0040                	addi	s0,sp,4
     a3a:	0000                	unimp
     a3c:	5800                	lw	s0,48(s0)
     a3e:	0001                	nop
     a40:	0200                	addi	s0,sp,256
     a42:	5a01                	li	s4,-32
     a44:	0309                	addi	t1,t1,2
     a46:	26e0                	fld	fs0,200(a3)
     a48:	4000                	lw	s0,0(s0)
     a4a:	0000                	unimp
     a4c:	0000                	unimp
     a4e:	0000                	unimp
     a50:	9c04                	.2byte	0x9c04
     a52:	000d                	c.nop	3
     a54:	5c00                	lw	s0,56(s0)
     a56:	0024                	addi	s1,sp,8
     a58:	0040                	addi	s0,sp,4
     a5a:	0000                	unimp
     a5c:	1800                	addi	s0,sp,48
     a5e:	0000                	unimp
     a60:	0000                	unimp
     a62:	0000                	unimp
     a64:	e000                	sd	s0,0(s0)
     a66:	8602                	jr	a2
     a68:	000a                	c.slli	zero,0x2
     a6a:	0500                	addi	s0,sp,640
     a6c:	0fd6                	slli	t6,t6,0x15
     a6e:	0000                	unimp
     a70:	245c                	fld	fa5,136(s0)
     a72:	4000                	lw	s0,0(s0)
     a74:	0000                	unimp
     a76:	0000                	unimp
     a78:	0014                	.2byte	0x14
     a7a:	0000                	unimp
     a7c:	0000                	unimp
     a7e:	0000                	unimp
     a80:	0250                	addi	a2,sp,260
     a82:	e305                	bnez	a4,aa2 <_prog_start-0x4000155e>
     a84:	5c00000f          	.4byte	0x5c00000f
     a88:	0024                	addi	s1,sp,8
     a8a:	0040                	addi	s0,sp,4
     a8c:	0000                	unimp
     a8e:	1400                	addi	s0,sp,544
     a90:	0000                	unimp
     a92:	0000                	unimp
     a94:	0000                	unimp
     a96:	3000                	fld	fs0,32(s0)
     a98:	0309                	addi	t1,t1,2
     a9a:	00000ff3          	.4byte	0xff3
     a9e:	06c1                	addi	a3,a3,16
     aa0:	0000                	unimp
     aa2:	fd01                	bnez	a0,9ba <_prog_start-0x40001646>
     aa4:	d700000f          	.4byte	0xd700000f
     aa8:	0006                	c.slli	zero,0x1
     aaa:	0000                	unimp
     aac:	0000                	unimp
     aae:	9c04                	.2byte	0x9c04
     ab0:	000d                	c.nop	3
     ab2:	8000                	.2byte	0x8000
     ab4:	0024                	addi	s1,sp,8
     ab6:	0040                	addi	s0,sp,4
     ab8:	0000                	unimp
     aba:	1400                	addi	s0,sp,544
     abc:	0000                	unimp
     abe:	0000                	unimp
     ac0:	0000                	unimp
     ac2:	e400                	sd	s0,8(s0)
     ac4:	e402                	sd	zero,8(sp)
     ac6:	000a                	c.slli	zero,0x2
     ac8:	0500                	addi	s0,sp,640
     aca:	0fd6                	slli	t6,t6,0x15
     acc:	0000                	unimp
     ace:	2480                	fld	fs0,8(s1)
     ad0:	4000                	lw	s0,0(s0)
     ad2:	0000                	unimp
     ad4:	0000                	unimp
     ad6:	0010                	.2byte	0x10
     ad8:	0000                	unimp
     ada:	0000                	unimp
     adc:	0000                	unimp
     ade:	0250                	addi	a2,sp,260
     ae0:	e305                	bnez	a4,b00 <_prog_start-0x40001500>
     ae2:	8000000f          	.4byte	0x8000000f
     ae6:	0024                	addi	s1,sp,8
     ae8:	0040                	addi	s0,sp,4
     aea:	0000                	unimp
     aec:	1000                	addi	s0,sp,32
     aee:	0000                	unimp
     af0:	0000                	unimp
     af2:	0000                	unimp
     af4:	3000                	fld	fs0,32(s0)
     af6:	0309                	addi	t1,t1,2
     af8:	00000ff3          	.4byte	0xff3
     afc:	000006eb          	.4byte	0x6eb
     b00:	fd01                	bnez	a0,a18 <_prog_start-0x400015e8>
     b02:	0100000f          	fence	w,unknown
     b06:	00000007          	.4byte	0x7
     b0a:	0000                	unimp
     b0c:	9c04                	.2byte	0x9c04
     b0e:	000d                	c.nop	3
     b10:	c200                	sw	s0,0(a2)
     b12:	0024                	addi	s1,sp,8
     b14:	0040                	addi	s0,sp,4
     b16:	0000                	unimp
     b18:	1400                	addi	s0,sp,544
     b1a:	0000                	unimp
     b1c:	0000                	unimp
     b1e:	0000                	unimp
     b20:	c200                	sw	s0,0(a2)
     b22:	000b4203          	lbu	tp,0(s6)
     b26:	0500                	addi	s0,sp,640
     b28:	0fd6                	slli	t6,t6,0x15
     b2a:	0000                	unimp
     b2c:	24c2                	fld	fs1,16(sp)
     b2e:	4000                	lw	s0,0(s0)
     b30:	0000                	unimp
     b32:	0000                	unimp
     b34:	0010                	.2byte	0x10
     b36:	0000                	unimp
     b38:	0000                	unimp
     b3a:	0000                	unimp
     b3c:	0250                	addi	a2,sp,260
     b3e:	e305                	bnez	a4,b5e <_prog_start-0x400014a2>
     b40:	c200000f          	.4byte	0xc200000f
     b44:	0024                	addi	s1,sp,8
     b46:	0040                	addi	s0,sp,4
     b48:	0000                	unimp
     b4a:	1000                	addi	s0,sp,32
     b4c:	0000                	unimp
     b4e:	0000                	unimp
     b50:	0000                	unimp
     b52:	3000                	fld	fs0,32(s0)
     b54:	0309                	addi	t1,t1,2
     b56:	00000ff3          	.4byte	0xff3
     b5a:	0715                	addi	a4,a4,5
     b5c:	0000                	unimp
     b5e:	fd01                	bnez	a0,a76 <_prog_start-0x4000158a>
     b60:	2b00000f          	.4byte	0x2b00000f
     b64:	00000007          	.4byte	0x7
     b68:	0000                	unimp
     b6a:	600a                	.2byte	0x600a
     b6c:	00400023          	sb	tp,0(zero) # 0 <_prog_start-0x40002000>
     b70:	0000                	unimp
     b72:	5800                	lw	s0,48(s0)
     b74:	0001                	nop
     b76:	6100                	ld	s0,0(a0)
     b78:	0200000b          	.4byte	0x200000b
     b7c:	5a01                	li	s4,-32
     b7e:	0309                	addi	t1,t1,2
     b80:	26c8                	fld	fa0,136(a3)
     b82:	4000                	lw	s0,0(s0)
     b84:	0000                	unimp
     b86:	0000                	unimp
     b88:	0a00                	addi	s0,sp,272
     b8a:	236c                	fld	fa1,192(a4)
     b8c:	4000                	lw	s0,0(s0)
     b8e:	0000                	unimp
     b90:	0000                	unimp
     b92:	00000147          	fmsub.s	ft2,ft0,ft0,ft0,rne
     b96:	0b80                	addi	s0,sp,464
     b98:	0000                	unimp
     b9a:	0102                	c.slli64	sp
     b9c:	095a                	slli	s2,s2,0x16
     b9e:	0026d003          	lhu	zero,2(a3)
     ba2:	0040                	addi	s0,sp,4
     ba4:	0000                	unimp
     ba6:	0000                	unimp
     ba8:	820a                	mv	tp,sp
     baa:	00400023          	sb	tp,0(zero) # 0 <_prog_start-0x40002000>
     bae:	0000                	unimp
     bb0:	a400                	fsd	fs0,8(s0)
     bb2:	000d                	c.nop	3
     bb4:	a500                	fsd	fs0,8(a0)
     bb6:	0200000b          	.4byte	0x200000b
     bba:	5a01                	li	s4,-32
     bbc:	0802                	c.slli64	a6
     bbe:	0252                	slli	tp,tp,0x14
     bc0:	5b01                	li	s6,-32
     bc2:	08000a03          	lb	s4,128(zero) # 80 <_prog_start-0x40001f80>
     bc6:	0102                	c.slli64	sp
     bc8:	025c                	addi	a5,sp,260
     bca:	5108                	lw	a0,32(a0)
     bcc:	0a00                	addi	s0,sp,272
     bce:	2480                	fld	fs0,8(s1)
     bd0:	4000                	lw	s0,0(s0)
     bd2:	0000                	unimp
     bd4:	0000                	unimp
     bd6:	0da4                	addi	s1,sp,728
     bd8:	0000                	unimp
     bda:	0bc8                	addi	a0,sp,468
     bdc:	0000                	unimp
     bde:	0102                	c.slli64	sp
     be0:	025a                	slli	tp,tp,0x16
     be2:	4c08                	lw	a0,24(s0)
     be4:	0102                	c.slli64	sp
     be6:	0230015b          	.4byte	0x230015b
     bea:	5c01                	li	s8,-32
     bec:	8202                	jr	tp
     bee:	0000                	unimp
     bf0:	a00c                	fsd	fa1,0(s0)
     bf2:	0024                	addi	s1,sp,8
     bf4:	0040                	addi	s0,sp,4
     bf6:	0000                	unimp
     bf8:	5800                	lw	s0,48(s0)
     bfa:	0001                	nop
     bfc:	0200                	addi	s0,sp,256
     bfe:	5a01                	li	s4,-32
     c00:	0309                	addi	t1,t1,2
     c02:	26f8                	fld	fa4,200(a3)
     c04:	4000                	lw	s0,0(s0)
     c06:	0000                	unimp
     c08:	0000                	unimp
     c0a:	0000                	unimp
     c0c:	0a00                	addi	s0,sp,272
     c0e:	2136                	fld	ft2,328(sp)
     c10:	4000                	lw	s0,0(s0)
     c12:	0000                	unimp
     c14:	0000                	unimp
     c16:	0158                	addi	a4,sp,132
     c18:	0000                	unimp
     c1a:	0c04                	addi	s1,sp,528
     c1c:	0000                	unimp
     c1e:	0102                	c.slli64	sp
     c20:	095a                	slli	s2,s2,0x16
     c22:	0026f003          	.4byte	0x26f003
     c26:	0040                	addi	s0,sp,4
     c28:	0000                	unimp
     c2a:	0000                	unimp
     c2c:	420a                	lw	tp,128(sp)
     c2e:	0021                	c.nop	8
     c30:	0040                	addi	s0,sp,4
     c32:	0000                	unimp
     c34:	5800                	lw	s0,48(s0)
     c36:	0001                	nop
     c38:	2300                	fld	fs0,0(a4)
     c3a:	000c                	.2byte	0xc
     c3c:	0200                	addi	s0,sp,256
     c3e:	5a01                	li	s4,-32
     c40:	0309                	addi	t1,t1,2
     c42:	2680                	fld	fs0,8(a3)
     c44:	4000                	lw	s0,0(s0)
     c46:	0000                	unimp
     c48:	0000                	unimp
     c4a:	0a00                	addi	s0,sp,272
     c4c:	2250                	fld	fa2,128(a2)
     c4e:	4000                	lw	s0,0(s0)
     c50:	0000                	unimp
     c52:	0000                	unimp
     c54:	0158                	addi	a4,sp,132
     c56:	0000                	unimp
     c58:	0c42                	slli	s8,s8,0x10
     c5a:	0000                	unimp
     c5c:	0102                	c.slli64	sp
     c5e:	095a                	slli	s2,s2,0x16
     c60:	00270003          	lb	zero,2(a4)
     c64:	0040                	addi	s0,sp,4
     c66:	0000                	unimp
     c68:	0000                	unimp
     c6a:	b00c                	fsd	fa1,32(s0)
     c6c:	0024                	addi	s1,sp,8
     c6e:	0040                	addi	s0,sp,4
     c70:	0000                	unimp
     c72:	5800                	lw	s0,48(s0)
     c74:	0001                	nop
     c76:	0200                	addi	s0,sp,256
     c78:	5a01                	li	s4,-32
     c7a:	0309                	addi	t1,t1,2
     c7c:	2708                	fld	fa0,8(a4)
     c7e:	4000                	lw	s0,0(s0)
     c80:	0000                	unimp
     c82:	0000                	unimp
     c84:	0000                	unimp
     c86:	0000da0f          	.4byte	0xda0f
     c8a:	0e00                	addi	s0,sp,784
     c8c:	01a4                	addi	s1,sp,200
     c8e:	0000                	unimp
     c90:	0cb2                	slli	s9,s9,0xc
     c92:	006a                	c.slli	zero,0x1a
     c94:	0000                	unimp
     c96:	c301                	beqz	a4,c96 <_prog_start-0x4000136a>
     c98:	000c                	.2byte	0xc
     c9a:	0600                	addi	s0,sp,768
     c9c:	0070                	addi	a2,sp,12
     c9e:	b401                	j	69e <_prog_start-0x40001962>
     ca0:	c314                	sw	a3,0(a4)
     ca2:	000c                	.2byte	0xc
     ca4:	0600                	addi	s0,sp,768
     ca6:	0069                	c.nop	26
     ca8:	b501                	j	aa8 <_prog_start-0x40001558>
     caa:	00008407          	.4byte	0x8407
     cae:	0600                	addi	s0,sp,768
     cb0:	6372                	ld	t1,280(sp)
     cb2:	0100                	addi	s0,sp,128
     cb4:	06b6                	slli	a3,a3,0xd
     cb6:	006a                	c.slli	zero,0x1a
     cb8:	0000                	unimp
     cba:	0619                	addi	a2,a2,6
     cbc:	00637263          	bgeu	t1,t1,cc0 <_prog_start-0x40001340>
     cc0:	c601                	beqz	a2,cc8 <_prog_start-0x40001338>
     cc2:	a30c                	fsd	fa1,0(a4)
     cc4:	0000                	unimp
     cc6:	2600                	fld	fs0,8(a2)
     cc8:	015c                	addi	a5,sp,132
     cca:	0000                	unimp
     ccc:	c601                	beqz	a2,cd4 <_prog_start-0x4000132c>
     cce:	a311                	j	11d2 <_prog_start-0x40000e2e>
     cd0:	0000                	unimp
     cd2:	0600                	addi	s0,sp,768
     cd4:	006e                	c.slli	zero,0x1b
     cd6:	c701                	beqz	a4,cde <_prog_start-0x40001322>
     cd8:	8408                	.2byte	0x8408
     cda:	0000                	unimp
     cdc:	1900                	addi	s0,sp,176
     cde:	7806                	ld	a6,96(sp)
     ce0:	0100                	addi	s0,sp,128
     ce2:	0ccd                	addi	s9,s9,19
     ce4:	0092                	slli	ra,ra,0x4
     ce6:	0000                	unimp
     ce8:	0000                	unimp
     cea:	0f00                	addi	s0,sp,912
     cec:	009e                	slli	ra,ra,0x7
     cee:	0000                	unimp
     cf0:	a90e                	fsd	ft3,144(sp)
     cf2:	0001                	nop
     cf4:	a300                	fsd	fs0,0(a4)
     cf6:	a311                	j	11fa <_prog_start-0x40000e06>
     cf8:	0000                	unimp
     cfa:	0100                	addi	s0,sp,128
     cfc:	0cf1                	addi	s9,s9,28
     cfe:	0000                	unimp
     d00:	6311                	lui	t1,0x4
     d02:	6372                	ld	t1,280(sp)
     d04:	0100                	addi	s0,sp,128
     d06:	00a326a3          	sw	a0,13(t1) # 400d <_prog_start-0x3fffdff3>
     d0a:	0000                	unimp
     d0c:	00012427          	fsw	ft0,8(sp)
     d10:	0100                	addi	s0,sp,128
     d12:	009233a3          	sd	s1,7(tp) # 7 <_prog_start-0x40001ff9>
     d16:	0000                	unimp
     d18:	0e00                	addi	s0,sp,784
     d1a:	00000213          	li	tp,0
     d1e:	0c9a                	slli	s9,s9,0x6
     d20:	006a                	c.slli	zero,0x1a
     d22:	0000                	unimp
     d24:	0d01                	addi	s10,s10,0
     d26:	000d                	c.nop	3
     d28:	0600                	addi	s0,sp,768
     d2a:	6372                	ld	t1,280(sp)
     d2c:	0100                	addi	s0,sp,128
     d2e:	069c                	addi	a5,sp,832
     d30:	006a                	c.slli	zero,0x1a
     d32:	0000                	unimp
     d34:	0e00                	addi	s0,sp,784
     d36:	0140                	addi	s0,sp,132
     d38:	0000                	unimp
     d3a:	0c8c                	addi	a1,sp,592
     d3c:	006a                	c.slli	zero,0x1a
     d3e:	0000                	unimp
     d40:	2901                	sext.w	s2,s2
     d42:	000d                	c.nop	3
     d44:	0600                	addi	s0,sp,768
     d46:	6372                	ld	t1,280(sp)
     d48:	0100                	addi	s0,sp,128
     d4a:	068e                	slli	a3,a3,0x3
     d4c:	006a                	c.slli	zero,0x1a
     d4e:	0000                	unimp
     d50:	0e00                	addi	s0,sp,784
     d52:	011a                	slli	sp,sp,0x6
     d54:	0000                	unimp
     d56:	0c80                	addi	s0,sp,592
     d58:	006a                	c.slli	zero,0x1a
     d5a:	0000                	unimp
     d5c:	4401                	li	s0,0
     d5e:	000d                	c.nop	3
     d60:	0600                	addi	s0,sp,768
     d62:	0072                	c.slli	zero,0x1c
     d64:	8201                	c.srli64	a2
     d66:	920a                	add	tp,tp,sp
     d68:	0000                	unimp
     d6a:	0000                	unimp
     d6c:	291a                	fld	fs2,384(sp)
     d6e:	0001                	nop
     d70:	7900                	ld	s0,48(a0)
     d72:	010d                	addi	sp,sp,3
     d74:	090e                	slli	s2,s2,0x3
     d76:	0001                	nop
     d78:	6b00                	ld	s0,16(a4)
     d7a:	6a0c                	ld	a1,16(a2)
     d7c:	0000                	unimp
     d7e:	0100                	addi	s0,sp,128
     d80:	0d68                	addi	a0,sp,668
     d82:	0000                	unimp
     d84:	7206                	ld	tp,96(sp)
     d86:	6d010063          	beq	sp,a6,1446 <_prog_start-0x40000bba>
     d8a:	6a06                	ld	s4,64(sp)
     d8c:	0000                	unimp
     d8e:	0000                	unimp
     d90:	f70e                	sd	gp,424(sp)
     d92:	0000                	unimp
     d94:	6100                	ld	s0,0(a0)
     d96:	6a0c                	ld	a1,16(a2)
     d98:	0000                	unimp
     d9a:	0100                	addi	s0,sp,128
     d9c:	0d84                	addi	s1,sp,720
     d9e:	0000                	unimp
     da0:	7206                	ld	tp,96(sp)
     da2:	63010063          	beq	sp,a6,13c2 <_prog_start-0x40000c3e>
     da6:	6a06                	ld	s4,64(sp)
     da8:	0000                	unimp
     daa:	0000                	unimp
     dac:	8228                	.2byte	0x8228
     dae:	0001                	nop
     db0:	0100                	addi	s0,sp,128
     db2:	0d55                	addi	s10,s10,21
     db4:	9c01                	subw	s0,s0,s0
     db6:	000d                	c.nop	3
     db8:	0600                	addi	s0,sp,768
     dba:	0069                	c.nop	26
     dbc:	5701                	li	a4,-32
     dbe:	00008407          	.4byte	0x8407
     dc2:	0000                	unimp
     dc4:	e91a                	sd	t1,144(sp)
     dc6:	0001                	nop
     dc8:	4e00                	lw	s0,24(a2)
     dca:	0314                	addi	a3,sp,384
     dcc:	ba29                	j	6e6 <_prog_start-0x4000191a>
     dce:	0001                	nop
     dd0:	0100                	addi	s0,sp,128
     dd2:	00921033          	sll	zero,tp,s1
     dd6:	0000                	unimp
     dd8:	2038                	fld	fa4,64(s0)
     dda:	4000                	lw	s0,0(s0)
     ddc:	0000                	unimp
     dde:	0000                	unimp
     de0:	00c2                	slli	ra,ra,0x10
     de2:	0000                	unimp
     de4:	0000                	unimp
     de6:	0000                	unimp
     de8:	9c01                	subw	s0,s0,s0
     dea:	0fd6                	slli	t6,t6,0x15
     dec:	0000                	unimp
     dee:	6312                	ld	t1,256(sp)
     df0:	646d                	lui	s0,0x1b
     df2:	1f00                	addi	s0,sp,944
     df4:	0092                	slli	ra,ra,0x4
     df6:	0000                	unimp
     df8:	0000073f 67726112 	.8byte	0x677261120000073f
     e00:	2d00                	fld	fs0,24(a0)
     e02:	000000bb          	addw	ra,zero,zero
     e06:	0769                	addi	a4,a4,26
     e08:	0000                	unimp
     e0a:	6312                	ld	t1,256(sp)
     e0c:	6372                	ld	t1,280(sp)
     e0e:	3a00                	fld	fs0,48(a2)
     e10:	0092                	slli	ra,ra,0x4
     e12:	0000                	unimp
     e14:	00000793          	li	a5,0
     e18:	6e06                	ld	t3,64(sp)
     e1a:	0100                	addi	s0,sp,128
     e1c:	1035                	c.nop	-19
     e1e:	0000008b          	.4byte	0x8b
     e22:	722a                	ld	tp,168(sp)
     e24:	0100                	addi	s0,sp,128
     e26:	0a36                	slli	s4,s4,0xd
     e28:	0092                	slli	ra,ra,0x4
     e2a:	0000                	unimp
     e2c:	07bd                	addi	a5,a5,15
     e2e:	0000                	unimp
     e30:	0002242b          	.4byte	0x2242b
     e34:	0100                	addi	s0,sp,128
     e36:	014a                	slli	sp,sp,0x12
     e38:	20ee                	fld	ft1,216(sp)
     e3a:	4000                	lw	s0,0(s0)
     e3c:	0000                	unimp
     e3e:	0000                	unimp
     e40:	d604                	sw	s1,40(a2)
     e42:	4600000f          	.4byte	0x4600000f
     e46:	0020                	addi	s0,sp,8
     e48:	0040                	addi	s0,sp,4
     e4a:	0000                	unimp
     e4c:	1000                	addi	s0,sp,32
     e4e:	0000                	unimp
     e50:	0000                	unimp
     e52:	0000                	unimp
     e54:	3900                	fld	fs0,48(a0)
     e56:	5e02                	lw	t3,32(sp)
     e58:	000e                	c.slli	zero,0x3
     e5a:	0500                	addi	s0,sp,640
     e5c:	00000fe3          	beqz	zero,167a <_prog_start-0x40000986>
     e60:	2046                	fld	ft0,80(sp)
     e62:	4000                	lw	s0,0(s0)
     e64:	0000                	unimp
     e66:	0000                	unimp
     e68:	0010                	.2byte	0x10
     e6a:	0000                	unimp
     e6c:	0000                	unimp
     e6e:	0000                	unimp
     e70:	0930                	addi	a2,sp,152
     e72:	000ff303          	.4byte	0xff303
     e76:	e400                	sd	s0,8(s0)
     e78:	01000007          	.4byte	0x1000007
     e7c:	0ffd                	addi	t6,t6,31
     e7e:	0000                	unimp
     e80:	07fa                	slli	a5,a5,0x1e
     e82:	0000                	unimp
     e84:	0000                	unimp
     e86:	e304                	sd	s1,0(a4)
     e88:	5600000f          	.4byte	0x5600000f
     e8c:	0020                	addi	s0,sp,8
     e8e:	0040                	addi	s0,sp,4
     e90:	0000                	unimp
     e92:	0e00                	addi	s0,sp,784
     e94:	0000                	unimp
     e96:	0000                	unimp
     e98:	0000                	unimp
     e9a:	3a00                	fld	fs0,48(a2)
     e9c:	8c02                	jr	s8
     e9e:	000e                	c.slli	zero,0x3
     ea0:	0300                	addi	s0,sp,384
     ea2:	00000ff3          	.4byte	0xff3
     ea6:	080e                	slli	a6,a6,0x3
     ea8:	0000                	unimp
     eaa:	fd01                	bnez	a0,dc2 <_prog_start-0x4000123e>
     eac:	3800000f          	.4byte	0x3800000f
     eb0:	0008                	.2byte	0x8
     eb2:	0000                	unimp
     eb4:	e304                	sd	s1,0(a4)
     eb6:	6800000f          	.4byte	0x6800000f
     eba:	0020                	addi	s0,sp,8
     ebc:	0040                	addi	s0,sp,4
     ebe:	0000                	unimp
     ec0:	0c00                	addi	s0,sp,528
     ec2:	0000                	unimp
     ec4:	0000                	unimp
     ec6:	0000                	unimp
     ec8:	3b00                	fld	fs0,48(a4)
     eca:	ba02                	fsd	ft0,304(sp)
     ecc:	000e                	c.slli	zero,0x3
     ece:	0300                	addi	s0,sp,384
     ed0:	00000ff3          	.4byte	0xff3
     ed4:	084c                	addi	a1,sp,20
     ed6:	0000                	unimp
     ed8:	fd01                	bnez	a0,df0 <_prog_start-0x40001210>
     eda:	7500000f          	.4byte	0x7500000f
     ede:	0008                	.2byte	0x8
     ee0:	0000                	unimp
     ee2:	e304                	sd	s1,0(a4)
     ee4:	7400000f          	.4byte	0x7400000f
     ee8:	0020                	addi	s0,sp,8
     eea:	0040                	addi	s0,sp,4
     eec:	0000                	unimp
     eee:	0e00                	addi	s0,sp,784
     ef0:	0000                	unimp
     ef2:	0000                	unimp
     ef4:	0000                	unimp
     ef6:	3c00                	fld	fs0,56(s0)
     ef8:	e802                	sd	zero,16(sp)
     efa:	000e                	c.slli	zero,0x3
     efc:	0300                	addi	s0,sp,384
     efe:	00000ff3          	.4byte	0xff3
     f02:	0889                	addi	a7,a7,2
     f04:	0000                	unimp
     f06:	fd01                	bnez	a0,e1e <_prog_start-0x400011e2>
     f08:	a100000f          	.4byte	0xa100000f
     f0c:	0008                	.2byte	0x8
     f0e:	0000                	unimp
     f10:	000fe307          	.4byte	0xfe307
     f14:	8200                	.2byte	0x8200
     f16:	0020                	addi	s0,sp,8
     f18:	0040                	addi	s0,sp,4
     f1a:	0000                	unimp
     f1c:	0c00                	addi	s0,sp,528
     f1e:	0000                	unimp
     f20:	3d00                	fld	fs0,56(a0)
     f22:	1802                	slli	a6,a6,0x20
     f24:	0300000f          	fence	rw,unknown
     f28:	00000ff3          	.4byte	0xff3
     f2c:	08b5                	addi	a7,a7,13
     f2e:	0000                	unimp
     f30:	0c08                	addi	a0,sp,528
     f32:	0000                	unimp
     f34:	0100                	addi	s0,sp,128
     f36:	0ffd                	addi	t6,t6,31
     f38:	0000                	unimp
     f3a:	08cd                	addi	a7,a7,19
     f3c:	0000                	unimp
     f3e:	0000                	unimp
     f40:	e304                	sd	s1,0(a4)
     f42:	9600000f          	.4byte	0x9600000f
     f46:	0020                	addi	s0,sp,8
     f48:	0040                	addi	s0,sp,4
     f4a:	0000                	unimp
     f4c:	1000                	addi	s0,sp,32
     f4e:	0000                	unimp
     f50:	0000                	unimp
     f52:	0000                	unimp
     f54:	3e00                	fld	fs0,56(a2)
     f56:	4602                	lw	a2,0(sp)
     f58:	0300000f          	fence	rw,unknown
     f5c:	00000ff3          	.4byte	0xff3
     f60:	08e1                	addi	a7,a7,24
     f62:	0000                	unimp
     f64:	fd01                	bnez	a0,e7c <_prog_start-0x40001184>
     f66:	f500000f          	.4byte	0xf500000f
     f6a:	0008                	.2byte	0x8
     f6c:	0000                	unimp
     f6e:	000fe307          	.4byte	0xfe307
     f72:	a600                	fsd	fs0,8(a2)
     f74:	0020                	addi	s0,sp,8
     f76:	0040                	addi	s0,sp,4
     f78:	0000                	unimp
     f7a:	2f00                	fld	fs0,24(a4)
     f7c:	0000                	unimp
     f7e:	3f00                	fld	fs0,56(a4)
     f80:	7602                	ld	a2,32(sp)
     f82:	0300000f          	fence	rw,unknown
     f86:	00000ff3          	.4byte	0xff3
     f8a:	0909                	addi	s2,s2,2
     f8c:	0000                	unimp
     f8e:	2f08                	fld	fa0,24(a4)
     f90:	0000                	unimp
     f92:	0100                	addi	s0,sp,128
     f94:	0ffd                	addi	t6,t6,31
     f96:	0000                	unimp
     f98:	091d                	addi	s2,s2,7
     f9a:	0000                	unimp
     f9c:	0000                	unimp
     f9e:	000fd607          	.4byte	0xfd607
     fa2:	b600                	fsd	fs0,40(a2)
     fa4:	0020                	addi	s0,sp,8
     fa6:	0040                	addi	s0,sp,4
     fa8:	0000                	unimp
     faa:	5200                	lw	s0,32(a2)
     fac:	0000                	unimp
     fae:	4300                	lw	s0,0(a4)
     fb0:	000fba07          	fld	fs4,0(t6)
     fb4:	0900                	addi	s0,sp,144
     fb6:	00000fe3          	beqz	zero,17d4 <_prog_start-0x4000082c>
     fba:	20b6                	fld	ft1,328(sp)
     fbc:	4000                	lw	s0,0(s0)
     fbe:	0000                	unimp
     fc0:	0000                	unimp
     fc2:	0052                	c.slli	zero,0x14
     fc4:	0000                	unimp
     fc6:	0930                	addi	a2,sp,152
     fc8:	000ff303          	.4byte	0xff303
     fcc:	3100                	fld	fs0,32(a0)
     fce:	0009                	c.nop	2
     fd0:	0800                	addi	s0,sp,16
     fd2:	0052                	c.slli	zero,0x14
     fd4:	0000                	unimp
     fd6:	fd01                	bnez	a0,eee <_prog_start-0x40001112>
     fd8:	4700000f          	.4byte	0x4700000f
     fdc:	0009                	c.nop	2
     fde:	0000                	unimp
     fe0:	0000                	unimp
     fe2:	ee0c                	sd	a1,24(a2)
     fe4:	0020                	addi	s0,sp,8
     fe6:	0040                	addi	s0,sp,4
     fe8:	0000                	unimp
     fea:	5800                	lw	s0,48(s0)
     fec:	0001                	nop
     fee:	0200                	addi	s0,sp,256
     ff0:	5a01                	li	s4,-32
     ff2:	0309                	addi	t1,t1,2
     ff4:	2670                	fld	fa2,200(a2)
     ff6:	4000                	lw	s0,0(s0)
     ff8:	0000                	unimp
     ffa:	0000                	unimp
     ffc:	0000                	unimp
     ffe:	112c                	addi	a1,sp,168
    1000:	0001                	nop
    1002:	0100                	addi	s0,sp,128
    1004:	172e                	slli	a4,a4,0x2b
    1006:	0092                	slli	ra,ra,0x4
    1008:	0000                	unimp
    100a:	00760e03          	lb	t3,7(a2)
    100e:	0000                	unimp
    1010:	00921723          	sh	s1,14(tp) # e <_prog_start-0x40001ff2>
    1014:	0000                	unimp
    1016:	00100803          	lb	a6,1(zero) # 1 <_prog_start-0x40001fff>
    101a:	1100                	addi	s0,sp,160
    101c:	0064                	addi	s1,sp,12
    101e:	2301                	sext.w	t1,t1
    1020:	9228                	.2byte	0x9228
    1022:	0000                	unimp
    1024:	0600                	addi	s0,sp,768
    1026:	0072                	c.slli	zero,0x1c
    1028:	2501                	sext.w	a0,a0
    102a:	af0a                	fsd	ft2,408(sp)
    102c:	0000                	unimp
    102e:	0000                	unimp
    1030:	0d2d                	addi	s10,s10,11
    1032:	0002                	c.slli64	zero
    1034:	0400                	addi	s0,sp,512
    1036:	1415                	addi	s0,s0,-27 # 1afe5 <_prog_start-0x3ffe701b>
    1038:	00631103          	lh	sp,6(t1)
    103c:	1504                	addi	s1,sp,672
    103e:	df1f 0000 0600      	.byte	0x1f, 0xdf, 0x00, 0x00, 0x00, 0x06
    1044:	7874                	ld	a3,240(s0)
    1046:	0400                	addi	s0,sp,512
    1048:	01071517          	auipc	a0,0x1071
    104c:	0000                	unimp
    104e:	7206                	ld	tp,96(sp)
    1050:	0400                	addi	s0,sp,512
    1052:	0a19                	addi	s4,s4,6 # fffffffffffe8006 <_sp+0xffffffff8ffe7006>
    1054:	000000af          	.4byte	0xaf
    1058:	0000                	unimp
    105a:	03a4                	addi	s1,sp,456
    105c:	0000                	unimp
    105e:	0005                	c.nop	1
    1060:	0801                	addi	a6,a6,0
    1062:	0000029b          	sext.w	t0,zero
    1066:	7f14                	ld	a3,56(a4)
    1068:	0000                	unimp
    106a:	1d00                	addi	s0,sp,688
    106c:	0156                	slli	sp,sp,0x15
    106e:	0000                	unimp
    1070:	0000                	unimp
    1072:	0000                	unimp
    1074:	24d8                	fld	fa4,136(s1)
    1076:	4000                	lw	s0,0(s0)
    1078:	0000                	unimp
    107a:	0000                	unimp
    107c:	0158                	addi	a4,sp,132
    107e:	0000                	unimp
    1080:	0000                	unimp
    1082:	0000                	unimp
    1084:	107d                	c.nop	-1
    1086:	0000                	unimp
    1088:	00024b03          	lbu	s6,0(tp) # 0 <_prog_start-0x40002000>
    108c:	0300                	addi	s0,sp,384
    108e:	1b28                	addi	a0,sp,440
    1090:	003a                	c.slli	zero,0xe
    1092:	0000                	unimp
    1094:	0815                	addi	a6,a6,5
    1096:	0231                	addi	tp,tp,12 # c <_prog_start-0x40001ff4>
    1098:	0000                	unimp
    109a:	00025203          	lhu	tp,0(tp) # 0 <_prog_start-0x40002000>
    109e:	0300                	addi	s0,sp,384
    10a0:	002e1863          	bne	t3,sp,10b0 <_prog_start-0x40000f50>
    10a4:	0000                	unimp
    10a6:	0101                	addi	sp,sp,0
    10a8:	3406                	fld	fs0,96(sp)
    10aa:	0001                	nop
    10ac:	0100                	addi	s0,sp,128
    10ae:	0801                	addi	a6,a6,0
    10b0:	0132                	slli	sp,sp,0xc
    10b2:	0000                	unimp
    10b4:	0201                	addi	tp,tp,0 # 0 <_prog_start-0x40002000>
    10b6:	cf05                	beqz	a4,10ee <_prog_start-0x40000f12>
    10b8:	0001                	nop
    10ba:	0100                	addi	s0,sp,128
    10bc:	0702                	c.slli64	a4
    10be:	0149                	addi	sp,sp,18
    10c0:	0000                	unimp
    10c2:	0000ff03          	.4byte	0xff03
    10c6:	0400                	addi	s0,sp,512
    10c8:	184d                	addi	a6,a6,-13
    10ca:	0074                	addi	a3,sp,12
    10cc:	0000                	unimp
    10ce:	0416                	slli	s0,s0,0x5
    10d0:	6905                	lui	s2,0x1
    10d2:	746e                	ld	s0,248(sp)
    10d4:	0300                	addi	s0,sp,384
    10d6:	016a                	slli	sp,sp,0x1a
    10d8:	0000                	unimp
    10da:	4f04                	lw	s1,24(a4)
    10dc:	8719                	srai	a4,a4,0x6
    10de:	0000                	unimp
    10e0:	0100                	addi	s0,sp,128
    10e2:	0704                	addi	s1,sp,896
    10e4:	00000197          	auipc	gp,0x0
    10e8:	0801                	addi	a6,a6,0
    10ea:	c605                	beqz	a2,1112 <_prog_start-0x40000eee>
    10ec:	0001                	nop
    10ee:	0100                	addi	s0,sp,128
    10f0:	0708                	addi	a0,sp,896
    10f2:	0192                	slli	gp,gp,0x4
    10f4:	0000                	unimp
    10f6:	00010103          	lb	sp,0(sp)
    10fa:	0500                	addi	s0,sp,640
    10fc:	132c                	addi	a1,sp,424
    10fe:	0068                	addi	a0,sp,12
    1100:	0000                	unimp
    1102:	00016c03          	lwu	s8,0(sp)
    1106:	0500                	addi	s0,sp,640
    1108:	1430                	addi	a2,sp,552
    110a:	0000007b          	.4byte	0x7b
    110e:	0000a817          	auipc	a6,0xa
    1112:	1800                	addi	s0,sp,48
    1114:	01f4                	addi	a3,sp,204
    1116:	0000                	unimp
    1118:	1302                	slli	t1,t1,0x20
    111a:	ce22                	sw	s0,28(sp)
    111c:	0000                	unimp
    111e:	0000                	unimp
    1120:	0000                	unimp
    1122:	0c64                	addi	s1,sp,540
    1124:	00b4                	addi	a3,sp,72
    1126:	0000                	unimp
    1128:	c90d                	beqz	a0,115a <_prog_start-0x40000ea6>
    112a:	0000                	unimp
    112c:	0e00                	addi	s0,sp,784
    112e:	01f9                	addi	gp,gp,30 # 1102 <_prog_start-0x40000efe>
    1130:	0000                	unimp
    1132:	1616                	slli	a2,a2,0x25
    1134:	0025                	c.nop	9
    1136:	0040                	addi	s0,sp,4
    1138:	0000                	unimp
    113a:	1a00                	addi	s0,sp,304
    113c:	0001                	nop
    113e:	0000                	unimp
    1140:	0000                	unimp
    1142:	0100                	addi	s0,sp,128
    1144:	6b9c                	ld	a5,16(a5)
    1146:	0002                	c.slli64	zero
    1148:	0f00                	addi	s0,sp,912
    114a:	6d66                	ld	s10,88(sp)
    114c:	0074                	addi	a3,sp,12
    114e:	1a16                	slli	s4,s4,0x25
    1150:	0000026b          	.4byte	0x26b
    1154:	00000967          	jalr	s2,zero # 0 <_prog_start-0x40002000>
    1158:	1a19                	addi	s4,s4,-26
    115a:	6c76                	ld	s8,344(sp)
    115c:	0100                	addi	s0,sp,128
    115e:	0a18                	addi	a4,sp,272
    1160:	0040                	addi	s0,sp,4
    1162:	0000                	unimp
    1164:	7fb89103          	lh	sp,2043(a7)
    1168:	5a08                	lw	a0,48(a2)
    116a:	0002                	c.slli64	zero
    116c:	0700                	addi	s0,sp,896
    116e:	027c                	addi	a5,sp,268
    1170:	0000                	unimp
    1172:	09b6                	slli	s3,s3,0xd
    1174:	0000                	unimp
    1176:	4308                	lw	a0,0(a4)
    1178:	0002                	c.slli64	zero
    117a:	1200                	addi	s0,sp,288
    117c:	027c                	addi	a5,sp,268
    117e:	0000                	unimp
    1180:	0a3e                	slli	s4,s4,0xf
    1182:	0000                	unimp
    1184:	2908                	fld	fa0,16(a0)
    1186:	0002                	c.slli64	zero
    1188:	1b00                	addi	s0,sp,432
    118a:	027c                	addi	a5,sp,268
    118c:	0000                	unimp
    118e:	0ab2                	slli	s5,s5,0xc
    1190:	0000                	unimp
    1192:	1a006307          	.4byte	0x1a006307
    1196:	00027007          	.4byte	0x27007
    119a:	2600                	fld	fs0,8(a2)
    119c:	1b00000b          	.4byte	0x1b00000b
    11a0:	043d                	addi	s0,s0,15
    11a2:	0000                	unimp
    11a4:	01a9                	addi	gp,gp,10
    11a6:	0000                	unimp
    11a8:	2a006e07          	.4byte	0x2a006e07
    11ac:	00009513          	slli	a0,ra,0x0
    11b0:	6000                	ld	s0,0(s0)
    11b2:	0700000b          	.4byte	0x700000b
    11b6:	0069                	c.nop	26
    11b8:	008e0a2b          	.4byte	0x8e0a2b
    11bc:	0000                	unimp
    11be:	0b9a                	slli	s7,s7,0x6
    11c0:	0000                	unimp
    11c2:	6006                	.2byte	0x6006
    11c4:	0004                	.2byte	0x4
    11c6:	0700                	addi	s0,sp,896
    11c8:	0064                	addi	s1,sp,12
    11ca:	0b34                	addi	a3,sp,408
    11cc:	008e                	slli	ra,ra,0x3
    11ce:	0000                	unimp
    11d0:	00000bc3          	fmadd.s	fs7,ft0,ft0,ft0,rne
    11d4:	7e10                	ld	a2,56(a2)
    11d6:	a8000003          	lb	zero,-1408(zero) # fffffffffffffa80 <_sp+0xffffffff8fffea80>
    11da:	0025                	c.nop	9
    11dc:	0040                	addi	s0,sp,4
    11de:	0000                	unimp
    11e0:	8300                	.2byte	0x8300
    11e2:	0004                	.2byte	0x4
    11e4:	3600                	fld	fs0,40(a2)
    11e6:	0406                	slli	s0,s0,0x1
    11e8:	00000387          	.4byte	0x387
    11ec:	8306                	mv	t1,ra
    11ee:	0004                	.2byte	0x4
    11f0:	0500                	addi	s0,sp,640
    11f2:	0391                	addi	t2,t2,4
    11f4:	0000                	unimp
    11f6:	9c02                	jalr	s8
    11f8:	d7000003          	lb	zero,-656(zero) # fffffffffffffd70 <_sp+0xffffffff8fffed70>
    11fc:	0000000b          	.4byte	0xb
    1200:	0000                	unimp
    1202:	1100                	addi	s0,sp,160
    1204:	037e                	slli	t1,t1,0x1f
    1206:	0000                	unimp
    1208:	2540                	fld	fs0,136(a0)
    120a:	4000                	lw	s0,0(s0)
    120c:	0000                	unimp
    120e:	0000                	unimp
    1210:	03e6                	slli	t2,t2,0x19
    1212:	0000                	unimp
    1214:	01da0447          	fmsub.s	fs0,fs4,ft9,ft0,rne
    1218:	0000                	unimp
    121a:	8704                	.2byte	0x8704
    121c:	06000003          	lb	zero,96(zero) # 60 <_prog_start-0x40001fa0>
    1220:	03e6                	slli	t2,t2,0x19
    1222:	0000                	unimp
    1224:	9105                	srli	a0,a0,0x21
    1226:	02000003          	lb	zero,32(zero) # 20 <_prog_start-0x40001fe0>
    122a:	039c                	addi	a5,sp,448
    122c:	0000                	unimp
    122e:	00000beb          	.4byte	0xbeb
    1232:	0000                	unimp
    1234:	7e11                	lui	t3,0xfffe4
    1236:	6a000003          	lb	zero,1696(zero) # 6a0 <_prog_start-0x40001960>
    123a:	0025                	c.nop	9
    123c:	0040                	addi	s0,sp,4
    123e:	0000                	unimp
    1240:	0900                	addi	s0,sp,144
    1242:	0004                	.2byte	0x4
    1244:	3e00                	fld	fs0,56(a2)
    1246:	1305                	addi	t1,t1,-31
    1248:	0002                	c.slli64	zero
    124a:	0900                	addi	s0,sp,144
    124c:	00000387          	.4byte	0x387
    1250:	0c12                	slli	s8,s8,0x4
    1252:	0000                	unimp
    1254:	0906                	slli	s2,s2,0x1
    1256:	0004                	.2byte	0x4
    1258:	0200                	addi	s0,sp,256
    125a:	0391                	addi	t2,t2,4
    125c:	0000                	unimp
    125e:	0c26                	slli	s8,s8,0x9
    1260:	0000                	unimp
    1262:	9c02                	jalr	s8
    1264:	3d000003          	lb	zero,976(zero) # 3d0 <_prog_start-0x40001c30>
    1268:	000c                	.2byte	0xc
    126a:	0000                	unimp
    126c:	1000                	addi	s0,sp,32
    126e:	035c                	addi	a5,sp,388
    1270:	0000                	unimp
    1272:	25d8                	fld	fa4,136(a1)
    1274:	4000                	lw	s0,0(s0)
    1276:	0000                	unimp
    1278:	0000                	unimp
    127a:	04a6                	slli	s1,s1,0x9
    127c:	0000                	unimp
    127e:	6909053b          	.4byte	0x6909053b
    1282:	51000003          	lb	zero,1296(zero) # 510 <_prog_start-0x40001af0>
    1286:	000c                	.2byte	0xc
    1288:	0600                	addi	s0,sp,768
    128a:	04a6                	slli	s1,s1,0x9
    128c:	0000                	unimp
    128e:	7302                	ld	t1,32(sp)
    1290:	65000003          	lb	zero,1616(zero) # 650 <_prog_start-0x400019b0>
    1294:	000c                	.2byte	0xc
    1296:	0a00                	addi	s0,sp,272
    1298:	037e                	slli	t1,t1,0x1f
    129a:	0000                	unimp
    129c:	25e2                	fld	fa1,24(sp)
    129e:	4000                	lw	s0,0(s0)
    12a0:	0000                	unimp
    12a2:	0000                	unimp
    12a4:	000e                	c.slli	zero,0x3
    12a6:	0000                	unimp
    12a8:	0000                	unimp
    12aa:	0000                	unimp
    12ac:	030c                	addi	a1,sp,384
    12ae:	8704                	.2byte	0x8704
    12b0:	05000003          	lb	zero,80(zero) # 50 <_prog_start-0x40001fb0>
    12b4:	0391                	addi	t2,t2,4
    12b6:	0000                	unimp
    12b8:	9c02                	jalr	s8
    12ba:	8c000003          	lb	zero,-1856(zero) # fffffffffffff8c0 <_sp+0xffffffff8fffe8c0>
    12be:	000c                	.2byte	0xc
    12c0:	0000                	unimp
    12c2:	0000                	unimp
    12c4:	0c00                	addi	s0,sp,528
    12c6:	00000277          	.4byte	0x277
    12ca:	0101                	addi	sp,sp,0
    12cc:	3b08                	fld	fa0,48(a4)
    12ce:	0001                	nop
    12d0:	0d00                	addi	s0,sp,656
    12d2:	0270                	addi	a2,sp,268
    12d4:	0000                	unimp
    12d6:	0101                	addi	sp,sp,0
    12d8:	6b02                	ld	s6,0(sp)
    12da:	0002                	c.slli64	zero
    12dc:	0e00                	addi	s0,sp,784
    12de:	0265                	addi	tp,tp,25 # 19 <_prog_start-0x40001fe7>
    12e0:	0000                	unimp
    12e2:	0024d80f          	.4byte	0x24d80f
    12e6:	0040                	addi	s0,sp,4
    12e8:	0000                	unimp
    12ea:	3e00                	fld	fs0,56(a2)
    12ec:	0000                	unimp
    12ee:	0000                	unimp
    12f0:	0000                	unimp
    12f2:	0100                	addi	s0,sp,128
    12f4:	5c9c                	lw	a5,56(s1)
    12f6:	0f000003          	lb	zero,240(zero) # f0 <_prog_start-0x40001f10>
    12fa:	180f0073          	.4byte	0x180f0073
    12fe:	0000026b          	.4byte	0x26b
    1302:	0ca0                	addi	s0,sp,600
    1304:	0000                	unimp
    1306:	5c12                	lw	s8,36(sp)
    1308:	d8000003          	lb	zero,-640(zero) # fffffffffffffd80 <_sp+0xffffffff8fffed80>
    130c:	0024                	addi	s1,sp,8
    130e:	0040                	addi	s0,sp,4
    1310:	0000                	unimp
    1312:	1c00                	addi	s0,sp,560
    1314:	0000                	unimp
    1316:	0000                	unimp
    1318:	0000                	unimp
    131a:	1100                	addi	s0,sp,160
    131c:	0304                	addi	s1,sp,384
    131e:	0000                	unimp
    1320:	6909                	lui	s2,0x2
    1322:	ca000003          	lb	zero,-864(zero) # fffffffffffffca0 <_sp+0xffffffff8fffeca0>
    1326:	000c                	.2byte	0xc
    1328:	0200                	addi	s0,sp,256
    132a:	00000373          	.4byte	0x373
    132e:	0cde                	slli	s9,s9,0x17
    1330:	0000                	unimp
    1332:	7e0a                	ld	t3,160(sp)
    1334:	de000003          	lb	zero,-544(zero) # fffffffffffffde0 <_sp+0xffffffff8fffede0>
    1338:	0024                	addi	s1,sp,8
    133a:	0040                	addi	s0,sp,4
    133c:	0000                	unimp
    133e:	0e00                	addi	s0,sp,784
    1340:	0000                	unimp
    1342:	0000                	unimp
    1344:	0000                	unimp
    1346:	0c00                	addi	s0,sp,528
    1348:	03870403          	lb	s0,56(a4)
    134c:	0000                	unimp
    134e:	9105                	srli	a0,a0,0x21
    1350:	02000003          	lb	zero,32(zero) # 20 <_prog_start-0x40001fe0>
    1354:	039c                	addi	a5,sp,448
    1356:	0000                	unimp
    1358:	0d05                	addi	s10,s10,1
    135a:	0000                	unimp
    135c:	0000                	unimp
    135e:	7e12                	ld	t3,288(sp)
    1360:	f4000003          	lb	zero,-192(zero) # ffffffffffffff40 <_sp+0xffffffff8fffef40>
    1364:	0024                	addi	s1,sp,8
    1366:	0040                	addi	s0,sp,4
    1368:	0000                	unimp
    136a:	1000                	addi	s0,sp,32
    136c:	0000                	unimp
    136e:	0000                	unimp
    1370:	0000                	unimp
    1372:	1200                	addi	s0,sp,288
    1374:	0332                	slli	t1,t1,0xc
    1376:	0000                	unimp
    1378:	8704                	.2byte	0x8704
    137a:	05000003          	lb	zero,80(zero) # 50 <_prog_start-0x40001fb0>
    137e:	0391                	addi	t2,t2,4
    1380:	0000                	unimp
    1382:	9c02                	jalr	s8
    1384:	19000003          	lb	zero,400(zero) # 190 <_prog_start-0x40001e70>
    1388:	000d                	c.nop	3
    138a:	0000                	unimp
    138c:	7e0a                	ld	t3,160(sp)
    138e:	04000003          	lb	zero,64(zero) # 40 <_prog_start-0x40001fc0>
    1392:	0025                	c.nop	9
    1394:	0040                	addi	s0,sp,4
    1396:	0000                	unimp
    1398:	1000                	addi	s0,sp,32
    139a:	0000                	unimp
    139c:	0000                	unimp
    139e:	0000                	unimp
    13a0:	1300                	addi	s0,sp,416
    13a2:	0402                	c.slli64	s0
    13a4:	00000387          	.4byte	0x387
    13a8:	9105                	srli	a0,a0,0x21
    13aa:	1c000003          	lb	zero,448(zero) # 1c0 <_prog_start-0x40001e40>
    13ae:	039c                	addi	a5,sp,448
    13b0:	0000                	unimp
    13b2:	5f01                	li	t5,-32
    13b4:	0000                	unimp
    13b6:	641d                	lui	s0,0x7
    13b8:	0002                	c.slli64	zero
    13ba:	0100                	addi	s0,sp,128
    13bc:	1408                	addi	a0,sp,544
    13be:	00037e03          	.4byte	0x37e03
    13c2:	1300                	addi	s0,sp,416
    13c4:	08010073          	.4byte	0x8010073
    13c8:	00026b27          	.4byte	0x26b27
    13cc:	0b00                	addi	s0,sp,400
    13ce:	0a010063          	beqz	sp,146e <_prog_start-0x40000b92>
    13d2:	00027007          	.4byte	0x27007
    13d6:	0000                	unimp
    13d8:	0d1e                	slli	s10,s10,0x7
    13da:	0002                	c.slli64	zero
    13dc:	0200                	addi	s0,sp,256
    13de:	1415                	addi	s0,s0,-27 # 6fe5 <_prog_start-0x3fffb01b>
    13e0:	00631303          	lh	t1,6(t1)
    13e4:	1502                	slli	a0,a0,0x20
    13e6:	701f 0002 0b00      	.byte	0x1f, 0x70, 0x02, 0x00, 0x00, 0x0b
    13ec:	7874                	ld	a3,240(s0)
    13ee:	0200                	addi	s0,sp,256
    13f0:	00c91517          	auipc	a0,0xc91
    13f4:	0000                	unimp
    13f6:	0200720b          	.4byte	0x200720b
    13fa:	0a19                	addi	s4,s4,6
    13fc:	009c                	addi	a5,sp,64
    13fe:	0000                	unimp
	...

Disassembly of section .debug_abbrev:

0000000000000000 <.debug_abbrev>:
   0:	1101                	addi	sp,sp,-32
   2:	1000                	addi	s0,sp,32
   4:	12011117          	auipc	sp,0x12011
   8:	1b0e030f          	.4byte	0x1b0e030f
   c:	250e                	fld	fa0,192(sp)
   e:	130e                	slli	t1,t1,0x23
  10:	0005                	c.nop	1
  12:	0000                	unimp
  14:	3401                	addiw	s0,s0,-32
  16:	3100                	fld	fs0,32(a0)
  18:	00170213          	addi	tp,a4,1
  1c:	0200                	addi	s0,sp,256
  1e:	0049                	c.nop	18
  20:	1802                	slli	a6,a6,0x20
  22:	187e                	slli	a6,a6,0x3f
  24:	0000                	unimp
  26:	31000503          	lb	a0,784(zero) # 310 <_prog_start-0x40001cf0>
  2a:	00170213          	addi	tp,a4,1
  2e:	0400                	addi	s0,sp,512
  30:	011d                	addi	sp,sp,7 # 1201100b <_prog_start-0x2dff0ff5>
  32:	1331                	addi	t1,t1,-20
  34:	0111                	addi	sp,sp,4
  36:	0712                	slli	a4,a4,0x4
  38:	2158                	fld	fa4,128(a0)
  3a:	5901                	li	s2,-32
  3c:	010b570b          	.4byte	0x10b570b
  40:	05000013          	li	zero,80
  44:	011d                	addi	sp,sp,7
  46:	1331                	addi	t1,t1,-20
  48:	0111                	addi	sp,sp,4
  4a:	0712                	slli	a4,a4,0x4
  4c:	2158                	fld	fa4,128(a0)
  4e:	5901                	li	s2,-32
  50:	000b570b          	.4byte	0xb570b
  54:	0600                	addi	s0,sp,768
  56:	0034                	addi	a3,sp,8
  58:	0b3a0803          	lb	a6,179(s4)
  5c:	0b390b3b          	.4byte	0xb390b3b
  60:	1349                	addi	t1,t1,-14
  62:	0000                	unimp
  64:	31011d07          	.4byte	0x31011d07
  68:	55015213          	.4byte	0x55015213
  6c:	01215817          	auipc	a6,0x1215
  70:	0b59                	addi	s6,s6,22
  72:	13010b57          	.4byte	0x13010b57
  76:	0000                	unimp
  78:	0b08                	addi	a0,sp,400
  7a:	5501                	li	a0,-32
  7c:	09000017          	auipc	zero,0x9000
  80:	011d                	addi	sp,sp,7
  82:	1331                	addi	t1,t1,-20
  84:	0152                	slli	sp,sp,0x14
  86:	1755                	addi	a4,a4,-11
  88:	2158                	fld	fa4,128(a0)
  8a:	5901                	li	s2,-32
  8c:	000b570b          	.4byte	0xb570b
  90:	0a00                	addi	s0,sp,272
  92:	0148                	addi	a0,sp,132
  94:	017d                	addi	sp,sp,31
  96:	137f                	.2byte	0x137f
  98:	1301                	addi	t1,t1,-32
  9a:	0000                	unimp
  9c:	0b00240b          	.4byte	0xb00240b
  a0:	030b3e0b          	.4byte	0x30b3e0b
  a4:	000e                	c.slli	zero,0x3
  a6:	0c00                	addi	s0,sp,528
  a8:	0148                	addi	a0,sp,132
  aa:	017d                	addi	sp,sp,31
  ac:	137f                	.2byte	0x137f
  ae:	0000                	unimp
  b0:	160d                	addi	a2,a2,-29
  b2:	0300                	addi	s0,sp,384
  b4:	3a0e                	fld	fs4,224(sp)
  b6:	390b3b0b          	.4byte	0x390b3b0b
  ba:	0013490b          	.4byte	0x13490b
  be:	0e00                	addi	s0,sp,784
  c0:	012e                	slli	sp,sp,0xb
  c2:	213a0e03          	lb	t3,531(s4)
  c6:	3b01                	addiw	s6,s6,-32
  c8:	270b390b          	.4byte	0x270b390b
  cc:	4919                	li	s2,6
  ce:	010b2013          	slti	zero,s6,16
  d2:	0f000013          	li	zero,240
  d6:	210b000f          	.4byte	0x210b000f
  da:	4908                	lw	a0,16(a0)
  dc:	10000013          	li	zero,256
  e0:	0026                	c.slli	zero,0x9
  e2:	1349                	addi	t1,t1,-14
  e4:	0000                	unimp
  e6:	0511                	addi	a0,a0,4 # c923f4 <_prog_start-0x3f36fc0c>
  e8:	0300                	addi	s0,sp,384
  ea:	3a08                	fld	fa0,48(a2)
  ec:	390b3b0b          	.4byte	0x390b3b0b
  f0:	0013490b          	.4byte	0x13490b
  f4:	1200                	addi	s0,sp,288
  f6:	0005                	c.nop	1
  f8:	213a0803          	lb	a6,531(s4)
  fc:	3b01                	addiw	s6,s6,-32
  fe:	3321                	addiw	t1,t1,-24
 100:	0b39                	addi	s6,s6,14
 102:	1349                	addi	t1,t1,-14
 104:	1702                	slli	a4,a4,0x20
 106:	0000                	unimp
 108:	49003513          	sltiu	a0,zero,1168
 10c:	14000013          	li	zero,320
 110:	012e                	slli	sp,sp,0xb
 112:	0e03193f 3b04213a 	.8byte	0x3b04213a0e03193f
 11a:	0d21390b          	.4byte	0xd21390b
 11e:	193c1927          	.4byte	0x193c1927
 122:	1301                	addi	t1,t1,-32
 124:	0000                	unimp
 126:	0515                	addi	a0,a0,5
 128:	4900                	lw	s0,16(a0)
 12a:	16000013          	li	zero,352
 12e:	0005                	c.nop	1
 130:	213a0e03          	lb	t3,531(s4)
 134:	3b01                	addiw	s6,s6,-32
 136:	490b390b          	.4byte	0x490b390b
 13a:	00170213          	addi	tp,a4,1
 13e:	1700                	addi	s0,sp,928
 140:	0034                	addi	a3,sp,8
 142:	213a0e03          	lb	t3,531(s4)
 146:	3b01                	addiw	s6,s6,-32
 148:	490b390b          	.4byte	0x490b390b
 14c:	00170213          	addi	tp,a4,1
 150:	1800                	addi	s0,sp,48
 152:	1331010b          	.4byte	0x1331010b
 156:	1755                	addi	a4,a4,-11
 158:	1301                	addi	t1,t1,-32
 15a:	0000                	unimp
 15c:	0b19                	addi	s6,s6,6
 15e:	0001                	nop
 160:	1a00                	addi	s0,sp,304
 162:	002e                	c.slli	zero,0xb
 164:	213a0e03          	lb	t3,531(s4)
 168:	3b01                	addiw	s6,s6,-32
 16a:	270b390b          	.4byte	0x270b390b
 16e:	2019                	.2byte	0x2019
 170:	1b00000b          	.4byte	0x1b00000b
 174:	0111                	addi	sp,sp,4
 176:	0e25                	addi	t3,t3,9 # fffffffffffe4009 <_sp+0xffffffff8ffe3009>
 178:	1f030b13          	addi	s6,t1,496
 17c:	17551f1b          	.4byte	0x17551f1b
 180:	0111                	addi	sp,sp,4
 182:	1710                	addi	a2,sp,928
 184:	0000                	unimp
 186:	241c                	fld	fa5,8(s0)
 188:	0b00                	addi	s0,sp,400
 18a:	030b3e0b          	.4byte	0x30b3e0b
 18e:	0008                	.2byte	0x8
 190:	1d00                	addi	s0,sp,688
 192:	0034                	addi	a3,sp,8
 194:	0b3a0e03          	lb	t3,179(s4)
 198:	0b390b3b          	.4byte	0xb390b3b
 19c:	1349                	addi	t1,t1,-14
 19e:	061c                	addi	a5,sp,768
 1a0:	0000                	unimp
 1a2:	341e                	fld	fs0,480(sp)
 1a4:	0300                	addi	s0,sp,384
 1a6:	3a08                	fld	fa0,48(a2)
 1a8:	390b3b0b          	.4byte	0x390b3b0b
 1ac:	1c13490b          	.4byte	0x1c13490b
 1b0:	0006                	c.slli	zero,0x1
 1b2:	1f00                	addi	s0,sp,944
 1b4:	0101                	addi	sp,sp,0
 1b6:	1349                	addi	t1,t1,-14
 1b8:	1301                	addi	t1,t1,-32
 1ba:	0000                	unimp
 1bc:	2120                	fld	fs0,64(a0)
 1be:	4900                	lw	s0,16(a0)
 1c0:	000b2f13          	slti	t5,s6,0
 1c4:	2100                	fld	fs0,0(a0)
 1c6:	0034                	addi	a3,sp,8
 1c8:	0b3a0e03          	lb	t3,179(s4)
 1cc:	0b390b3b          	.4byte	0xb390b3b
 1d0:	1349                	addi	t1,t1,-14
 1d2:	0a1c                	addi	a5,sp,272
 1d4:	0000                	unimp
 1d6:	1822                	slli	a6,a6,0x28
 1d8:	0000                	unimp
 1da:	2300                	fld	fs0,0(a4)
 1dc:	012e                	slli	sp,sp,0xb
 1de:	0e03193f 0b3b0b3a 	.8byte	0xb3b0b3a0e03193f
 1e6:	0b39                	addi	s6,s6,14
 1e8:	13491927          	.4byte	0x13491927
 1ec:	0111                	addi	sp,sp,4
 1ee:	0712                	slli	a4,a4,0x4
 1f0:	1840                	addi	s0,sp,52
 1f2:	197a                	slli	s2,s2,0x3e
 1f4:	1301                	addi	t1,t1,-32
 1f6:	0000                	unimp
 1f8:	0b24                	addi	s1,sp,408
 1fa:	1101                	addi	sp,sp,-32
 1fc:	1201                	addi	tp,tp,-32 # ffffffffffffffe0 <_sp+0xffffffff8fffefe0>
 1fe:	00130107          	.4byte	0x130107
 202:	2500                	fld	fs0,8(a0)
 204:	0005                	c.nop	1
 206:	1331                	addi	t1,t1,-20
 208:	0000                	unimp
 20a:	3426                	fld	fs0,104(sp)
 20c:	0300                	addi	s0,sp,384
 20e:	3a0e                	fld	fs4,224(sp)
 210:	390b3b0b          	.4byte	0x390b3b0b
 214:	0013490b          	.4byte	0x13490b
 218:	2700                	fld	fs0,8(a4)
 21a:	0005                	c.nop	1
 21c:	0b3a0e03          	lb	t3,179(s4)
 220:	0b390b3b          	.4byte	0xb390b3b
 224:	1349                	addi	t1,t1,-14
 226:	0000                	unimp
 228:	2e28                	fld	fa0,88(a2)
 22a:	0301                	addi	t1,t1,0
 22c:	3a0e                	fld	fs4,224(sp)
 22e:	390b3b0b          	.4byte	0x390b3b0b
 232:	2019270b          	.4byte	0x2019270b
 236:	0013010b          	.4byte	0x13010b
 23a:	2900                	fld	fs0,16(a0)
 23c:	012e                	slli	sp,sp,0xb
 23e:	0b3a0e03          	lb	t3,179(s4)
 242:	0b390b3b          	.4byte	0xb390b3b
 246:	13491927          	.4byte	0x13491927
 24a:	0111                	addi	sp,sp,4
 24c:	0712                	slli	a4,a4,0x4
 24e:	1840                	addi	s0,sp,52
 250:	197a                	slli	s2,s2,0x3e
 252:	1301                	addi	t1,t1,-32
 254:	0000                	unimp
 256:	342a                	fld	fs0,168(sp)
 258:	0300                	addi	s0,sp,384
 25a:	3a08                	fld	fa0,48(a2)
 25c:	390b3b0b          	.4byte	0x390b3b0b
 260:	0213490b          	.4byte	0x213490b
 264:	2b000017          	auipc	zero,0x2b000
 268:	000a                	c.slli	zero,0x2
 26a:	0b3a0e03          	lb	t3,179(s4)
 26e:	0b390b3b          	.4byte	0xb390b3b
 272:	0111                	addi	sp,sp,4
 274:	0000                	unimp
 276:	2e2c                	fld	fa1,88(a2)
 278:	0300                	addi	s0,sp,384
 27a:	3a0e                	fld	fs4,224(sp)
 27c:	390b3b0b          	.4byte	0x390b3b0b
 280:	4919270b          	.4byte	0x4919270b
 284:	000b2013          	slti	zero,s6,0
 288:	2d00                	fld	fs0,24(a0)
 28a:	012e                	slli	sp,sp,0xb
 28c:	0b3a0e03          	lb	t3,179(s4)
 290:	0b390b3b          	.4byte	0xb390b3b
 294:	0b201927          	.4byte	0xb201927
 298:	0000                	unimp
 29a:	0100                	addi	s0,sp,128
 29c:	0024                	addi	s1,sp,8
 29e:	0b3e0b0b          	.4byte	0xb3e0b0b
 2a2:	00000e03          	lb	t3,0(zero) # 0 <_prog_start-0x40002000>
 2a6:	3402                	fld	fs0,32(sp)
 2a8:	3100                	fld	fs0,32(a0)
 2aa:	00170213          	addi	tp,a4,1
 2ae:	0300                	addi	s0,sp,384
 2b0:	0016                	c.slli	zero,0x5
 2b2:	0b3a0e03          	lb	t3,179(s4)
 2b6:	0b390b3b          	.4byte	0xb390b3b
 2ba:	1349                	addi	t1,t1,-14
 2bc:	0000                	unimp
 2be:	0504                	addi	s1,sp,640
 2c0:	3100                	fld	fs0,32(a0)
 2c2:	05000013          	li	zero,80
 2c6:	0034                	addi	a3,sp,8
 2c8:	1331                	addi	t1,t1,-20
 2ca:	0000                	unimp
 2cc:	0b06                	slli	s6,s6,0x1
 2ce:	5501                	li	a0,-32
 2d0:	07000017          	auipc	zero,0x7000
 2d4:	0034                	addi	a3,sp,8
 2d6:	213a0803          	lb	a6,531(s4)
 2da:	3b01                	addiw	s6,s6,-32
 2dc:	490b390b          	.4byte	0x490b390b
 2e0:	00170213          	addi	tp,a4,1
 2e4:	0800                	addi	s0,sp,16
 2e6:	0034                	addi	a3,sp,8
 2e8:	213a0e03          	lb	t3,531(s4)
 2ec:	3b01                	addiw	s6,s6,-32
 2ee:	1921                	addi	s2,s2,-24 # 1fe8 <_prog_start-0x40000018>
 2f0:	0b39                	addi	s6,s6,14
 2f2:	1349                	addi	t1,t1,-14
 2f4:	1702                	slli	a4,a4,0x20
 2f6:	0000                	unimp
 2f8:	0509                	addi	a0,a0,2
 2fa:	3100                	fld	fs0,32(a0)
 2fc:	00170213          	addi	tp,a4,1
 300:	0a00                	addi	s0,sp,272
 302:	011d                	addi	sp,sp,7
 304:	1331                	addi	t1,t1,-20
 306:	0111                	addi	sp,sp,4
 308:	0712                	slli	a4,a4,0x4
 30a:	2158                	fld	fa4,128(a0)
 30c:	5901                	li	s2,-32
 30e:	000b570b          	.4byte	0xb570b
 312:	0b00                	addi	s0,sp,400
 314:	0034                	addi	a3,sp,8
 316:	0b3a0803          	lb	a6,179(s4)
 31a:	0b390b3b          	.4byte	0xb390b3b
 31e:	1349                	addi	t1,t1,-14
 320:	0000                	unimp
 322:	0f0c                	addi	a1,sp,912
 324:	0b00                	addi	s0,sp,400
 326:	0821                	addi	a6,a6,8 # 1215074 <_prog_start-0x3edecf8c>
 328:	1349                	addi	t1,t1,-14
 32a:	0000                	unimp
 32c:	260d                	addiw	a2,a2,3
 32e:	4900                	lw	s0,16(a0)
 330:	0e000013          	li	zero,224
 334:	012e                	slli	sp,sp,0xb
 336:	0e03193f 3b01213a 	.8byte	0x3b01213a0e03193f
 33e:	0621390b          	.4byte	0x621390b
 342:	01111927          	.4byte	0x1111927
 346:	0712                	slli	a4,a4,0x4
 348:	1840                	addi	s0,sp,52
 34a:	197a                	slli	s2,s2,0x3e
 34c:	1301                	addi	t1,t1,-32
 34e:	0000                	unimp
 350:	0300050f          	.4byte	0x300050f
 354:	3a08                	fld	fa0,48(a2)
 356:	0121                	addi	sp,sp,8
 358:	0b390b3b          	.4byte	0xb390b3b
 35c:	1349                	addi	t1,t1,-14
 35e:	1702                	slli	a4,a4,0x20
 360:	0000                	unimp
 362:	1d10                	addi	a2,sp,688
 364:	3101                	addiw	sp,sp,-32
 366:	55015213          	.4byte	0x55015213
 36a:	01215817          	auipc	a6,0x1215
 36e:	0b59                	addi	s6,s6,22
 370:	00000b57          	.4byte	0xb57
 374:	1d11                	addi	s10,s10,-28
 376:	3101                	addiw	sp,sp,-32
 378:	55015213          	.4byte	0x55015213
 37c:	01215817          	auipc	a6,0x1215
 380:	0b59                	addi	s6,s6,22
 382:	13010b57          	.4byte	0x13010b57
 386:	0000                	unimp
 388:	1d12                	slli	s10,s10,0x24
 38a:	3101                	addiw	sp,sp,-32
 38c:	12011113          	.4byte	0x12011113
 390:	01215807          	.4byte	0x1215807
 394:	0b59                	addi	s6,s6,22
 396:	01022157          	.4byte	0x1022157
 39a:	13000013          	li	zero,304
 39e:	0005                	c.nop	1
 3a0:	0b3a0803          	lb	a6,179(s4)
 3a4:	0b390b3b          	.4byte	0xb390b3b
 3a8:	1349                	addi	t1,t1,-14
 3aa:	0000                	unimp
 3ac:	1114                	addi	a3,sp,160
 3ae:	2501                	sext.w	a0,a0
 3b0:	130e                	slli	t1,t1,0x23
 3b2:	1b1f030b          	.4byte	0x1b1f030b
 3b6:	111f 1201 1007      	.byte	0x1f, 0x11, 0x01, 0x12, 0x07, 0x10
 3bc:	15000017          	auipc	zero,0x15000
 3c0:	0b0b000f          	.4byte	0xb0b000f
 3c4:	00000e03          	lb	t3,0(zero) # 0 <_prog_start-0x40002000>
 3c8:	2416                	fld	fs0,320(sp)
 3ca:	0b00                	addi	s0,sp,400
 3cc:	030b3e0b          	.4byte	0x30b3e0b
 3d0:	0008                	.2byte	0x8
 3d2:	1700                	addi	s0,sp,928
 3d4:	0035                	c.nop	13
 3d6:	1349                	addi	t1,t1,-14
 3d8:	0000                	unimp
 3da:	3418                	fld	fa4,40(s0)
 3dc:	0300                	addi	s0,sp,384
 3de:	3a0e                	fld	fs4,224(sp)
 3e0:	390b3b0b          	.4byte	0x390b3b0b
 3e4:	1c13490b          	.4byte	0x1c13490b
 3e8:	0006                	c.slli	zero,0x1
 3ea:	1900                	addi	s0,sp,176
 3ec:	0018                	.2byte	0x18
 3ee:	0000                	unimp
 3f0:	341a                	fld	fs0,416(sp)
 3f2:	0300                	addi	s0,sp,384
 3f4:	3a08                	fld	fa0,48(a2)
 3f6:	390b3b0b          	.4byte	0x390b3b0b
 3fa:	0213490b          	.4byte	0x213490b
 3fe:	0018                	.2byte	0x18
 400:	1b00                	addi	s0,sp,432
 402:	1755010b          	.4byte	0x1755010b
 406:	1301                	addi	t1,t1,-32
 408:	0000                	unimp
 40a:	341c                	fld	fa5,40(s0)
 40c:	3100                	fld	fs0,32(a0)
 40e:	00180213          	addi	tp,a6,1 # 121537d <_prog_start-0x3edecc83>
 412:	1d00                	addi	s0,sp,688
 414:	012e                	slli	sp,sp,0xb
 416:	0b3a0e03          	lb	t3,179(s4)
 41a:	0b390b3b          	.4byte	0xb390b3b
 41e:	0b201927          	.4byte	0xb201927
 422:	1301                	addi	t1,t1,-32
 424:	0000                	unimp
 426:	2e1e                	fld	ft8,448(sp)
 428:	0301                	addi	t1,t1,0
 42a:	3a0e                	fld	fs4,224(sp)
 42c:	390b3b0b          	.4byte	0x390b3b0b
 430:	2019270b          	.4byte	0x2019270b
 434:	0000000b          	.4byte	0xb

Disassembly of section .debug_aranges:

0000000000000000 <.debug_aranges>:
   0:	002c                	addi	a1,sp,8
   2:	0000                	unimp
   4:	0002                	c.slli64	zero
   6:	0000                	unimp
   8:	0000                	unimp
   a:	0008                	.2byte	0x8
   c:	0000                	unimp
   e:	0000                	unimp
  10:	2000                	fld	fs0,0(s0)
  12:	4000                	lw	s0,0(s0)
  14:	0000                	unimp
  16:	0000                	unimp
  18:	0038                	addi	a4,sp,8
	...
  2e:	0000                	unimp
  30:	003c                	addi	a5,sp,8
  32:	0000                	unimp
  34:	0002                	c.slli64	zero
  36:	0028                	addi	a0,sp,8
  38:	0000                	unimp
  3a:	0008                	.2byte	0x8
  3c:	0000                	unimp
  3e:	0000                	unimp
  40:	2038                	fld	fa4,64(s0)
  42:	4000                	lw	s0,0(s0)
  44:	0000                	unimp
  46:	0000                	unimp
  48:	00c2                	slli	ra,ra,0x10
  4a:	0000                	unimp
  4c:	0000                	unimp
  4e:	0000                	unimp
  50:	20fa                	fld	ft1,408(sp)
  52:	4000                	lw	s0,0(s0)
  54:	0000                	unimp
  56:	0000                	unimp
  58:	03de                	slli	t2,t2,0x17
	...
  6e:	0000                	unimp
  70:	002c                	addi	a1,sp,8
  72:	0000                	unimp
  74:	0002                	c.slli64	zero
  76:	105a                	c.slli	zero,0x36
  78:	0000                	unimp
  7a:	0008                	.2byte	0x8
  7c:	0000                	unimp
  7e:	0000                	unimp
  80:	24d8                	fld	fa4,136(s1)
  82:	4000                	lw	s0,0(s0)
  84:	0000                	unimp
  86:	0000                	unimp
  88:	0158                	addi	a4,sp,132
	...

Disassembly of section .debug_str:

0000000000000000 <.debug_str>:
   0:	6568                	ld	a0,200(a0)
   2:	6461                	lui	s0,0x18
   4:	532e                	lw	t1,232(sp)
   6:	2f00                	fld	fs0,24(a4)
   8:	6f68                	ld	a0,216(a4)
   a:	656d                	lui	a0,0x1b
   c:	6e69622f          	.4byte	0x6e69622f
  10:	6b68                	ld	a0,208(a4)
  12:	6569                	lui	a0,0x1a
  14:	6475                	lui	s0,0x1d
  16:	6f572f6f          	jal	t5,72f0a <_prog_start-0x3ff8f0f6>
  1a:	6b72                	ld	s6,280(sp)
  1c:	63617073          	csrci	0x636,2
  20:	2f65                	addiw	t5,t5,25
  22:	6d74                	ld	a3,216(a0)
  24:	2f70                	fld	fa2,216(a4)
  26:	4348                	lw	a0,4(a4)
  28:	554d                	li	a0,-13
  2a:	72505453          	.4byte	0x72505453
  2e:	63656a6f          	jal	s4,56664 <_prog_start-0x3ffab99c>
  32:	2f74                	fld	fa3,216(a4)
  34:	7266                	ld	tp,120(sp)
  36:	6d61                	lui	s10,0x18
  38:	7765                	lui	a4,0xffff9
  3a:	2f6b726f          	jal	tp,b7330 <_prog_start-0x3ff4acd0>
  3e:	2f637273          	csrrci	tp,0x2f6,6
  42:	616d                	addi	sp,sp,240
  44:	6e69                	lui	t3,0x1a
  46:	7365722f          	.4byte	0x7365722f
  4a:	6372756f          	jal	a0,27e80 <_prog_start-0x3ffda180>
  4e:	7365                	lui	t1,0xffff9
  50:	6f6f622f          	.4byte	0x6f6f622f
  54:	5274                	lw	a3,100(a2)
  56:	4d2f4d4f          	.4byte	0x4d2f4d4f
  5a:	4254                	lw	a3,4(a2)
  5c:	00746f6f          	jal	t5,46862 <_prog_start-0x3ffbb79e>
  60:	20554e47          	fmsub.s	ft8,fa0,ft5,ft4,rmm
  64:	5341                	li	t1,-16
  66:	3220                	fld	fs0,96(a2)
  68:	332e                	fld	ft6,232(sp)
  6a:	0039                	c.nop	14
  6c:	5f5f 6975 746e      	.byte	0x5f, 0x5f, 0x75, 0x69, 0x6e, 0x74
  72:	5f38                	lw	a4,120(a4)
  74:	0074                	addi	a3,sp,12
  76:	5f697073          	csrci	0x5f6,18
  7a:	6678                	ld	a4,200(a2)
  7c:	7265                	lui	tp,0xffff9
  7e:	4700                	lw	s0,8(a4)
  80:	554e                	lw	a0,240(sp)
  82:	4320                	lw	s0,64(a4)
  84:	3131                	addiw	sp,sp,-20
  86:	3120                	fld	fs0,96(a0)
  88:	2e32                	fld	ft8,264(sp)
  8a:	2e32                	fld	ft8,264(sp)
  8c:	2030                	fld	fa2,64(s0)
  8e:	6d2d                	lui	s10,0xb
  90:	6261                	lui	tp,0x18
  92:	3d69                	addiw	s10,s10,-6 # affa <_prog_start-0x3fff7006>
  94:	706c                	ld	a1,224(s0)
  96:	3436                	fld	fs0,360(sp)
  98:	2064                	fld	fs1,192(s0)
  9a:	6d2d                	lui	s10,0xb
  9c:	646f6d63          	bltu	t5,t1,6f6 <_prog_start-0x4000190a>
  a0:	6c65                	lui	s8,0x19
  a2:	6d3d                	lui	s10,0xf
  a4:	6465                	lui	s0,0x19
  a6:	6e61                	lui	t3,0x18
  a8:	2079                	.2byte	0x2079
  aa:	6d2d                	lui	s10,0xb
  ac:	7574                	ld	a3,232(a0)
  ae:	656e                	ld	a0,216(sp)
  b0:	723d                	lui	tp,0xfffef
  b2:	656b636f          	jal	t1,b6708 <_prog_start-0x3ff4b8f8>
  b6:	2074                	fld	fa3,192(s0)
  b8:	6d2d                	lui	s10,0xb
  ba:	7369                	lui	t1,0xffffa
  bc:	2d61                	addiw	s10,s10,24 # b018 <_prog_start-0x3fff6fe8>
  be:	63657073          	csrci	0x636,10
  c2:	323d                	addiw	tp,tp,-17 # fffffffffffeefef <_sp+0xffffffff8ffedfef>
  c4:	322e                	fld	ft4,232(sp)
  c6:	2d20                	fld	fs0,88(a0)
  c8:	616d                	addi	sp,sp,240
  ca:	6372                	ld	t1,280(sp)
  cc:	3d68                	fld	fa0,248(a0)
  ce:	7672                	ld	a2,312(sp)
  d0:	3436                	fld	fs0,360(sp)
  d2:	6d69                	lui	s10,0x1a
  d4:	6661                	lui	a2,0x18
  d6:	6364                	ld	s1,192(a4)
  d8:	2d20                	fld	fs0,88(a0)
  da:	4f2d2067          	.4byte	0x4f2d2067
  de:	2032                	fld	ft0,264(sp)
  e0:	732d                	lui	t1,0xfffeb
  e2:	6474                	ld	a3,200(s0)
  e4:	673d                	lui	a4,0xf
  e6:	756e                	ld	a0,248(sp)
  e8:	3131                	addiw	sp,sp,-20
  ea:	2d20                	fld	fs0,88(a0)
  ec:	6e66                	ld	t3,88(sp)
  ee:	6f632d6f          	jal	s10,327e4 <_prog_start-0x3ffcf81c>
  f2:	6d6d                	lui	s10,0x1b
  f4:	73006e6f          	jal	t3,6824 <_prog_start-0x3fffb7dc>
  f8:	5f64                	lw	s1,124(a4)
  fa:	30646d63          	bltu	s0,t1,414 <_prog_start-0x40001bec>
  fe:	5f00                	lw	s0,56(a4)
 100:	695f 746e 3233      	.byte	0x5f, 0x69, 0x6e, 0x74, 0x33, 0x32
 106:	745f 7300 5f64      	.byte	0x5f, 0x74, 0x00, 0x73, 0x64, 0x5f
 10c:	38646d63          	bltu	s0,t1,4a6 <_prog_start-0x40001b5a>
 110:	7300                	ld	s0,32(a4)
 112:	5f64                	lw	s1,124(a4)
 114:	7564                	ld	s1,232(a0)
 116:	6d6d                	lui	s10,0x1b
 118:	0079                	c.nop	30
 11a:	615f6473          	csrrsi	s0,htimedeltah,30
 11e:	34646d63          	bltu	s0,t1,478 <_prog_start-0x40001b88>
 122:	0031                	c.nop	12
 124:	6164                	ld	s1,192(a0)
 126:	6174                	ld	a3,192(a0)
 128:	7300                	ld	s0,32(a4)
 12a:	5f64                	lw	s1,124(a4)
 12c:	35646d63          	bltu	s0,s6,486 <_prog_start-0x40001b7a>
 130:	0035                	c.nop	13
 132:	6e75                	lui	t3,0x1d
 134:	6e676973          	csrrsi	s2,0x6e6,14
 138:	6465                	lui	s0,0x19
 13a:	6320                	ld	s0,64(a4)
 13c:	6168                	ld	a0,192(a0)
 13e:	0072                	c.slli	zero,0x1c
 140:	635f6473          	csrrsi	s0,0x635,30
 144:	646d                	lui	s0,0x1b
 146:	3835                	addiw	a6,a6,-19
 148:	7300                	ld	s0,32(a4)
 14a:	6f68                	ld	a0,216(a4)
 14c:	7472                	ld	s0,312(sp)
 14e:	7520                	ld	s0,104(a0)
 150:	736e                	ld	t1,248(sp)
 152:	6769                	lui	a4,0x1a
 154:	656e                	ld	a0,216(sp)
 156:	2064                	fld	fs1,192(s0)
 158:	6e69                	lui	t3,0x1a
 15a:	0074                	addi	a3,sp,12
 15c:	5f637263          	bgeu	t1,s6,740 <_prog_start-0x400018c0>
 160:	7865                	lui	a6,0xffff9
 162:	0070                	addi	a2,sp,12
 164:	5f5f 6d74 0070      	.byte	0x5f, 0x5f, 0x74, 0x6d, 0x70, 0x00
 16a:	5f5f 6975 746e      	.byte	0x5f, 0x5f, 0x75, 0x69, 0x6e, 0x74
 170:	745f3233          	.4byte	0x745f3233
 174:	6d00                	ld	s0,24(a0)
 176:	6961                	lui	s2,0x18
 178:	006e                	c.slli	zero,0x1b
 17a:	6e697073          	csrci	0x6e6,18
 17e:	656e                	ld	a0,216(sp)
 180:	0072                	c.slli	zero,0x1c
 182:	705f6473          	csrrsi	s0,0x705,30
 186:	7265776f          	jal	a4,578ac <_prog_start-0x3ffaa754>
 18a:	6c006e6f          	jal	t3,684a <_prog_start-0x3fffb7b6>
 18e:	20676e6f          	jal	t3,76394 <_prog_start-0x3ff8bc6c>
 192:	6f6c                	ld	a1,216(a4)
 194:	676e                	ld	a4,216(sp)
 196:	7520                	ld	s0,104(a0)
 198:	736e                	ld	t1,248(sp)
 19a:	6769                	lui	a4,0x1a
 19c:	656e                	ld	a0,216(sp)
 19e:	2064                	fld	fs1,192(s0)
 1a0:	6e69                	lui	t3,0x1a
 1a2:	0074                	addi	a3,sp,12
 1a4:	79706f63          	bltu	zero,s7,942 <_prog_start-0x400016be>
 1a8:	6300                	ld	s0,0(a4)
 1aa:	6372                	ld	t1,280(sp)
 1ac:	3631                	addiw	a2,a2,-20 # 17fec <_prog_start-0x3ffea014>
 1ae:	725f 756f 646e      	.byte	0x5f, 0x72, 0x6f, 0x75, 0x6e, 0x64
 1b4:	6400                	ld	s0,8(s0)
 1b6:	6d75                	lui	s10,0x1d
 1b8:	0070                	addi	a2,sp,12
 1ba:	635f6473          	csrrsi	s0,0x635,30
 1be:	646d                	lui	s0,0x1b
 1c0:	6c00                	ld	s0,24(s0)
 1c2:	20676e6f          	jal	t3,763c8 <_prog_start-0x3ff8bc38>
 1c6:	6f6c                	ld	a1,216(a4)
 1c8:	676e                	ld	a4,216(sp)
 1ca:	6920                	ld	s0,80(a0)
 1cc:	746e                	ld	s0,248(sp)
 1ce:	7300                	ld	s0,32(a4)
 1d0:	6f68                	ld	a0,216(a4)
 1d2:	7472                	ld	s0,312(sp)
 1d4:	6920                	ld	s0,80(a0)
 1d6:	746e                	ld	s0,248(sp)
 1d8:	5f00                	lw	s0,56(a4)
 1da:	755f 6e69 3174      	.byte	0x5f, 0x75, 0x69, 0x6e, 0x74, 0x31
 1e0:	5f36                	lw	t5,108(sp)
 1e2:	0074                	addi	a3,sp,12
 1e4:	7261                	lui	tp,0xffff8
 1e6:	73006367          	.4byte	0x73006367
 1ea:	5f64                	lw	s1,124(a4)
 1ec:	5f646d63          	bltu	s0,s6,7e6 <_prog_start-0x4000181a>
 1f0:	6e65                	lui	t3,0x19
 1f2:	0064                	addi	s1,sp,12
 1f4:	6175                	addi	sp,sp,368
 1f6:	7472                	ld	s0,312(sp)
 1f8:	6b00                	ld	s0,16(a4)
 1fa:	7270                	ld	a2,224(a2)
 1fc:	6e69                	lui	t3,0x1a
 1fe:	6674                	ld	a3,200(a2)
 200:	6c00                	ld	s0,24(s0)
 202:	20676e6f          	jal	t3,76408 <_prog_start-0x3ff8bbf8>
 206:	6f64                	ld	s1,216(a4)
 208:	6275                	lui	tp,0x1d
 20a:	656c                	ld	a1,200(a0)
 20c:	6b00                	ld	s0,16(a4)
 20e:	7570                	ld	a2,232(a0)
 210:	6374                	ld	a3,192(a4)
 212:	7300                	ld	s0,32(a4)
 214:	5f64                	lw	s1,124(a4)
 216:	31646d63          	bltu	s0,s6,530 <_prog_start-0x40001ad0>
 21a:	0036                	c.slli	zero,0xd
 21c:	686d                	lui	a6,0x1b
 21e:	7261                	lui	tp,0xffff8
 220:	6974                	ld	a3,208(a0)
 222:	0064                	addi	s1,sp,12
 224:	6f64                	ld	s1,216(a4)
 226:	656e                	ld	a0,216(sp)
 228:	6900                	ld	s0,16(a0)
 22a:	68635f73          	csrrwi	t5,0x686,6
 22e:	7261                	lui	tp,0xffff8
 230:	5f00                	lw	s0,56(a4)
 232:	625f 6975 746c      	.byte	0x5f, 0x62, 0x75, 0x69, 0x6c, 0x74
 238:	6e69                	lui	t3,0x1a
 23a:	765f 5f61 696c      	.byte	0x5f, 0x76, 0x61, 0x5f, 0x6c, 0x69
 240:	69007473          	csrrci	s0,0x690,0
 244:	6f6c5f73          	csrrwi	t5,0x6f6,24
 248:	676e                	ld	a4,216(sp)
 24a:	5f00                	lw	s0,56(a4)
 24c:	675f 756e 5f63      	.byte	0x5f, 0x67, 0x6e, 0x75, 0x63, 0x5f
 252:	6176                	ld	sp,344(sp)
 254:	6c5f 7369 0074      	.byte	0x5f, 0x6c, 0x69, 0x73, 0x74, 0x00
 25a:	7369                	lui	t1,0xffffa
 25c:	665f 726f 616d      	.byte	0x5f, 0x66, 0x6f, 0x72, 0x6d, 0x61
 262:	0074                	addi	a3,sp,12
 264:	6b5f 7570 7374      	.byte	0x5f, 0x6b, 0x70, 0x75, 0x74, 0x73
 26a:	5f00                	lw	s0,56(a4)
 26c:	6f42                	ld	t5,16(sp)
 26e:	6f 6c 00            	Address 0x000000000000026e is out of bounds.


Disassembly of section .debug_loclists:

0000000000000000 <.debug_loclists>:
   0:	00000957          	.4byte	0x957
   4:	0005                	c.nop	1
   6:	0008                	.2byte	0x8
   8:	0000                	unimp
   a:	0000                	unimp
   c:	0020fa07          	.4byte	0x20fa07
  10:	0040                	addi	s0,sp,4
  12:	0000                	unimp
  14:	1600                	addi	s0,sp,800
  16:	0021                	c.nop	8
  18:	0040                	addi	s0,sp,4
  1a:	0000                	unimp
  1c:	0100                	addi	s0,sp,128
  1e:	075a                	slli	a4,a4,0x16
  20:	2116                	fld	ft2,320(sp)
  22:	4000                	lw	s0,0(s0)
  24:	0000                	unimp
  26:	0000                	unimp
  28:	212a                	fld	ft2,136(sp)
  2a:	4000                	lw	s0,0(s0)
  2c:	0000                	unimp
  2e:	0000                	unimp
  30:	a304                	fsd	fs1,0(a4)
  32:	5a01                	li	s4,-32
  34:	079f 212a 4000      	.byte	0x9f, 0x07, 0x2a, 0x21, 0x00, 0x40
  3a:	0000                	unimp
  3c:	0000                	unimp
  3e:	2132                	fld	ft2,264(sp)
  40:	4000                	lw	s0,0(s0)
  42:	0000                	unimp
  44:	0000                	unimp
  46:	5a01                	li	s4,-32
  48:	00213207          	fld	ft4,2(sp)
  4c:	0040                	addi	s0,sp,4
  4e:	0000                	unimp
  50:	d800                	sw	s0,48(s0)
  52:	0024                	addi	s1,sp,8
  54:	0040                	addi	s0,sp,4
  56:	0000                	unimp
  58:	0400                	addi	s0,sp,512
  5a:	9f5a01a3          	sb	s5,-1565(s4)
  5e:	0700                	addi	s0,sp,896
  60:	20fa                	fld	ft1,408(sp)
  62:	4000                	lw	s0,0(s0)
  64:	0000                	unimp
  66:	0000                	unimp
  68:	2116                	fld	ft2,320(sp)
  6a:	4000                	lw	s0,0(s0)
  6c:	0000                	unimp
  6e:	0000                	unimp
  70:	5b01                	li	s6,-32
  72:	00211607          	.4byte	0x211607
  76:	0040                	addi	s0,sp,4
  78:	0000                	unimp
  7a:	2a00                	fld	fs0,16(a2)
  7c:	0021                	c.nop	8
  7e:	0040                	addi	s0,sp,4
  80:	0000                	unimp
  82:	0400                	addi	s0,sp,512
  84:	9f5b01a3          	sb	s5,-1565(s6)
  88:	00212a07          	flw	fs4,2(sp)
  8c:	0040                	addi	s0,sp,4
  8e:	0000                	unimp
  90:	3500                	fld	fs0,40(a0)
  92:	0021                	c.nop	8
  94:	0040                	addi	s0,sp,4
  96:	0000                	unimp
  98:	0100                	addi	s0,sp,128
  9a:	2135075b          	.4byte	0x2135075b
  9e:	4000                	lw	s0,0(s0)
  a0:	0000                	unimp
  a2:	0000                	unimp
  a4:	24d8                	fld	fa4,136(s1)
  a6:	4000                	lw	s0,0(s0)
  a8:	0000                	unimp
  aa:	0000                	unimp
  ac:	a304                	fsd	fs1,0(a4)
  ae:	5b01                	li	s6,-32
  b0:	009f 1407 0021      	.byte	0x9f, 0x00, 0x07, 0x14, 0x21, 0x00
  b6:	0040                	addi	s0,sp,4
  b8:	0000                	unimp
  ba:	1600                	addi	s0,sp,800
  bc:	0021                	c.nop	8
  be:	0040                	addi	s0,sp,4
  c0:	0000                	unimp
  c2:	0100                	addi	s0,sp,128
  c4:	0758                	addi	a4,sp,900
  c6:	212a                	fld	ft2,136(sp)
  c8:	4000                	lw	s0,0(s0)
  ca:	0000                	unimp
  cc:	0000                	unimp
  ce:	2244                	fld	fs1,128(a2)
  d0:	4000                	lw	s0,0(s0)
  d2:	0000                	unimp
  d4:	0000                	unimp
  d6:	5801                	li	a6,-32
  d8:	00225407          	.4byte	0x225407
  dc:	0040                	addi	s0,sp,4
  de:	0000                	unimp
  e0:	5c00                	lw	s0,56(s0)
  e2:	0024                	addi	s1,sp,8
  e4:	0040                	addi	s0,sp,4
  e6:	0000                	unimp
  e8:	0100                	addi	s0,sp,128
  ea:	0758                	addi	a4,sp,900
  ec:	24b2                	fld	fs1,264(sp)
  ee:	4000                	lw	s0,0(s0)
  f0:	0000                	unimp
  f2:	0000                	unimp
  f4:	24c0                	fld	fs0,136(s1)
  f6:	4000                	lw	s0,0(s0)
  f8:	0000                	unimp
  fa:	0000                	unimp
  fc:	5801                	li	a6,-32
  fe:	0024c207          	.4byte	0x24c207
 102:	0040                	addi	s0,sp,4
 104:	0000                	unimp
 106:	d800                	sw	s0,48(s0)
 108:	0024                	addi	s1,sp,8
 10a:	0040                	addi	s0,sp,4
 10c:	0000                	unimp
 10e:	0100                	addi	s0,sp,128
 110:	0058                	addi	a4,sp,4
 112:	00211207          	.4byte	0x211207
 116:	0040                	addi	s0,sp,4
 118:	0000                	unimp
 11a:	1400                	addi	s0,sp,544
 11c:	0021                	c.nop	8
 11e:	0040                	addi	s0,sp,4
 120:	0000                	unimp
 122:	0100                	addi	s0,sp,128
 124:	0058                	addi	a4,sp,4
 126:	00215207          	.4byte	0x215207
 12a:	0040                	addi	s0,sp,4
 12c:	0000                	unimp
 12e:	5c00                	lw	s0,56(s0)
 130:	0021                	c.nop	8
 132:	0040                	addi	s0,sp,4
 134:	0000                	unimp
 136:	0200                	addi	s0,sp,256
 138:	9f3a                	add	t5,t5,a4
 13a:	0700                	addi	s0,sp,896
 13c:	215c                	fld	fa5,128(a0)
 13e:	4000                	lw	s0,0(s0)
 140:	0000                	unimp
 142:	0000                	unimp
 144:	2164                	fld	fs1,192(a0)
 146:	4000                	lw	s0,0(s0)
 148:	0000                	unimp
 14a:	0000                	unimp
 14c:	9fff0903          	lb	s2,-1537(t5)
 150:	0700                	addi	s0,sp,896
 152:	2160                	fld	fs0,192(a0)
 154:	4000                	lw	s0,0(s0)
 156:	0000                	unimp
 158:	0000                	unimp
 15a:	2164                	fld	fs1,192(a0)
 15c:	4000                	lw	s0,0(s0)
 15e:	0000                	unimp
 160:	0000                	unimp
 162:	5f01                	li	t5,-32
 164:	0700                	addi	s0,sp,896
 166:	2186                	fld	ft3,64(sp)
 168:	4000                	lw	s0,0(s0)
 16a:	0000                	unimp
 16c:	0000                	unimp
 16e:	219a                	fld	ft3,384(sp)
 170:	4000                	lw	s0,0(s0)
 172:	0000                	unimp
 174:	0000                	unimp
 176:	08007a0b          	.4byte	0x8007a0b
 17a:	1aff                	.2byte	0x1aff
 17c:	2e31                	addiw	t3,t3,12 # 1a00c <_prog_start-0x3ffe7ff4>
 17e:	ff08                	sd	a0,56(a4)
 180:	9f1a                	add	t5,t5,t1
 182:	0700                	addi	s0,sp,896
 184:	2186                	fld	ft3,64(sp)
 186:	4000                	lw	s0,0(s0)
 188:	0000                	unimp
 18a:	0000                	unimp
 18c:	2196                	fld	ft3,320(sp)
 18e:	4000                	lw	s0,0(s0)
 190:	0000                	unimp
 192:	0000                	unimp
 194:	9fff0903          	lb	s2,-1537(t5)
 198:	0700                	addi	s0,sp,896
 19a:	2192                	fld	ft3,256(sp)
 19c:	4000                	lw	s0,0(s0)
 19e:	0000                	unimp
 1a0:	0000                	unimp
 1a2:	2196                	fld	ft3,320(sp)
 1a4:	4000                	lw	s0,0(s0)
 1a6:	0000                	unimp
 1a8:	0000                	unimp
 1aa:	5f01                	li	t5,-32
 1ac:	0700                	addi	s0,sp,896
 1ae:	21ca                	fld	ft3,144(sp)
 1b0:	4000                	lw	s0,0(s0)
 1b2:	0000                	unimp
 1b4:	0000                	unimp
 1b6:	2204                	fld	fs1,0(a2)
 1b8:	4000                	lw	s0,0(s0)
 1ba:	0000                	unimp
 1bc:	0000                	unimp
 1be:	7c06                	ld	s8,96(sp)
 1c0:	0800                	addi	s0,sp,16
 1c2:	1aff                	.2byte	0x1aff
 1c4:	079f 2204 4000      	.byte	0x9f, 0x07, 0x04, 0x22, 0x00, 0x40
 1ca:	0000                	unimp
 1cc:	0000                	unimp
 1ce:	222a                	fld	ft4,136(sp)
 1d0:	4000                	lw	s0,0(s0)
 1d2:	0000                	unimp
 1d4:	0000                	unimp
 1d6:	7c09                	lui	s8,0xfffe2
 1d8:	7e00                	ld	s0,56(a2)
 1da:	2100                	fld	fs0,0(a0)
 1dc:	ff08                	sd	a0,56(a4)
 1de:	9f1a                	add	t5,t5,t1
 1e0:	00223207          	fld	ft4,2(tp) # ffffffffffff8002 <_sp+0xffffffff8fff7002>
 1e4:	0040                	addi	s0,sp,4
 1e6:	0000                	unimp
 1e8:	4200                	lw	s0,0(a2)
 1ea:	0022                	c.slli	zero,0x8
 1ec:	0040                	addi	s0,sp,4
 1ee:	0000                	unimp
 1f0:	0600                	addi	s0,sp,768
 1f2:	007e                	c.slli	zero,0x1f
 1f4:	ff08                	sd	a0,56(a4)
 1f6:	9f1a                	add	t5,t5,t1
 1f8:	0700                	addi	s0,sp,896
 1fa:	21ca                	fld	ft3,144(sp)
 1fc:	4000                	lw	s0,0(s0)
 1fe:	0000                	unimp
 200:	0000                	unimp
 202:	21d6                	fld	ft3,336(sp)
 204:	4000                	lw	s0,0(s0)
 206:	0000                	unimp
 208:	0000                	unimp
 20a:	9fff0903          	lb	s2,-1537(t5)
 20e:	0700                	addi	s0,sp,896
 210:	21d2                	fld	ft3,272(sp)
 212:	4000                	lw	s0,0(s0)
 214:	0000                	unimp
 216:	0000                	unimp
 218:	21d6                	fld	ft3,336(sp)
 21a:	4000                	lw	s0,0(s0)
 21c:	0000                	unimp
 21e:	0000                	unimp
 220:	5f01                	li	t5,-32
 222:	0700                	addi	s0,sp,896
 224:	21d6                	fld	ft3,336(sp)
 226:	4000                	lw	s0,0(s0)
 228:	0000                	unimp
 22a:	0000                	unimp
 22c:	21e6                	fld	ft3,88(sp)
 22e:	4000                	lw	s0,0(s0)
 230:	0000                	unimp
 232:	0000                	unimp
 234:	9fff0903          	lb	s2,-1537(t5)
 238:	0700                	addi	s0,sp,896
 23a:	21e2                	fld	ft3,24(sp)
 23c:	4000                	lw	s0,0(s0)
 23e:	0000                	unimp
 240:	0000                	unimp
 242:	21e6                	fld	ft3,88(sp)
 244:	4000                	lw	s0,0(s0)
 246:	0000                	unimp
 248:	0000                	unimp
 24a:	5f01                	li	t5,-32
 24c:	0700                	addi	s0,sp,896
 24e:	21e6                	fld	ft3,88(sp)
 250:	4000                	lw	s0,0(s0)
 252:	0000                	unimp
 254:	0000                	unimp
 256:	21fa                	fld	ft3,408(sp)
 258:	4000                	lw	s0,0(s0)
 25a:	0000                	unimp
 25c:	0000                	unimp
 25e:	9fff0903          	lb	s2,-1537(t5)
 262:	0700                	addi	s0,sp,896
 264:	21f6                	fld	ft3,344(sp)
 266:	4000                	lw	s0,0(s0)
 268:	0000                	unimp
 26a:	0000                	unimp
 26c:	21fa                	fld	ft3,408(sp)
 26e:	4000                	lw	s0,0(s0)
 270:	0000                	unimp
 272:	0000                	unimp
 274:	5e01                	li	t3,-32
 276:	0700                	addi	s0,sp,896
 278:	2204                	fld	fs1,0(a2)
 27a:	4000                	lw	s0,0(s0)
 27c:	0000                	unimp
 27e:	0000                	unimp
 280:	2218                	fld	fa4,0(a2)
 282:	4000                	lw	s0,0(s0)
 284:	0000                	unimp
 286:	0000                	unimp
 288:	9fff0903          	lb	s2,-1537(t5)
 28c:	0700                	addi	s0,sp,896
 28e:	2214                	fld	fa3,0(a2)
 290:	4000                	lw	s0,0(s0)
 292:	0000                	unimp
 294:	0000                	unimp
 296:	2218                	fld	fa4,0(a2)
 298:	4000                	lw	s0,0(s0)
 29a:	0000                	unimp
 29c:	0000                	unimp
 29e:	5d01                	li	s10,-32
 2a0:	0700                	addi	s0,sp,896
 2a2:	2232                	fld	ft4,264(sp)
 2a4:	4000                	lw	s0,0(s0)
 2a6:	0000                	unimp
 2a8:	0000                	unimp
 2aa:	223e                	fld	ft4,456(sp)
 2ac:	4000                	lw	s0,0(s0)
 2ae:	0000                	unimp
 2b0:	0000                	unimp
 2b2:	9fff0903          	lb	s2,-1537(t5)
 2b6:	0700                	addi	s0,sp,896
 2b8:	223a                	fld	ft4,392(sp)
 2ba:	4000                	lw	s0,0(s0)
 2bc:	0000                	unimp
 2be:	0000                	unimp
 2c0:	223e                	fld	ft4,456(sp)
 2c2:	4000                	lw	s0,0(s0)
 2c4:	0000                	unimp
 2c6:	0000                	unimp
 2c8:	5f01                	li	t5,-32
 2ca:	0700                	addi	s0,sp,896
 2cc:	2296                	fld	ft5,320(sp)
 2ce:	4000                	lw	s0,0(s0)
 2d0:	0000                	unimp
 2d2:	0000                	unimp
 2d4:	229a                	fld	ft5,384(sp)
 2d6:	4000                	lw	s0,0(s0)
 2d8:	0000                	unimp
 2da:	0000                	unimp
 2dc:	5a01                	li	s4,-32
 2de:	0700                	addi	s0,sp,896
 2e0:	2278                	fld	fa4,192(a2)
 2e2:	4000                	lw	s0,0(s0)
 2e4:	0000                	unimp
 2e6:	0000                	unimp
 2e8:	2282                	fld	ft5,0(sp)
 2ea:	4000                	lw	s0,0(s0)
 2ec:	0000                	unimp
 2ee:	0000                	unimp
 2f0:	9fff0903          	lb	s2,-1537(t5)
 2f4:	0700                	addi	s0,sp,896
 2f6:	227e                	fld	ft4,472(sp)
 2f8:	4000                	lw	s0,0(s0)
 2fa:	0000                	unimp
 2fc:	0000                	unimp
 2fe:	2282                	fld	ft5,0(sp)
 300:	4000                	lw	s0,0(s0)
 302:	0000                	unimp
 304:	0000                	unimp
 306:	5f01                	li	t5,-32
 308:	0700                	addi	s0,sp,896
 30a:	22be                	fld	ft5,456(sp)
 30c:	4000                	lw	s0,0(s0)
 30e:	0000                	unimp
 310:	0000                	unimp
 312:	231e                	fld	ft6,448(sp)
 314:	4000                	lw	s0,0(s0)
 316:	0000                	unimp
 318:	0000                	unimp
 31a:	7c06                	ld	s8,96(sp)
 31c:	0800                	addi	s0,sp,16
 31e:	1aff                	.2byte	0x1aff
 320:	009f be07 0022      	.byte	0x9f, 0x00, 0x07, 0xbe, 0x22, 0x00
 326:	0040                	addi	s0,sp,4
 328:	0000                	unimp
 32a:	ce00                	sw	s0,24(a2)
 32c:	0022                	c.slli	zero,0x8
 32e:	0040                	addi	s0,sp,4
 330:	0000                	unimp
 332:	0300                	addi	s0,sp,384
 334:	ff09                	bnez	a4,24e <_prog_start-0x40001db2>
 336:	009f ca07 0022      	.byte	0x9f, 0x00, 0x07, 0xca, 0x22, 0x00
 33c:	0040                	addi	s0,sp,4
 33e:	0000                	unimp
 340:	ce00                	sw	s0,24(a2)
 342:	0022                	c.slli	zero,0x8
 344:	0040                	addi	s0,sp,4
 346:	0000                	unimp
 348:	0100                	addi	s0,sp,128
 34a:	005e                	c.slli	zero,0x17
 34c:	0022da07          	.4byte	0x22da07
 350:	0040                	addi	s0,sp,4
 352:	0000                	unimp
 354:	ea00                	sd	s0,16(a2)
 356:	0022                	c.slli	zero,0x8
 358:	0040                	addi	s0,sp,4
 35a:	0000                	unimp
 35c:	0300                	addi	s0,sp,384
 35e:	ff09                	bnez	a4,278 <_prog_start-0x40001d88>
 360:	009f e607 0022      	.byte	0x9f, 0x00, 0x07, 0xe6, 0x22, 0x00
 366:	0040                	addi	s0,sp,4
 368:	0000                	unimp
 36a:	ea00                	sd	s0,16(a2)
 36c:	0022                	c.slli	zero,0x8
 36e:	0040                	addi	s0,sp,4
 370:	0000                	unimp
 372:	0100                	addi	s0,sp,128
 374:	005f ea07 0022      	.byte	0x5f, 0x00, 0x07, 0xea, 0x22, 0x00
 37a:	0040                	addi	s0,sp,4
 37c:	0000                	unimp
 37e:	fa00                	sd	s0,48(a2)
 380:	0022                	c.slli	zero,0x8
 382:	0040                	addi	s0,sp,4
 384:	0000                	unimp
 386:	0300                	addi	s0,sp,384
 388:	ff09                	bnez	a4,2a2 <_prog_start-0x40001d5e>
 38a:	009f f607 0022      	.byte	0x9f, 0x00, 0x07, 0xf6, 0x22, 0x00
 390:	0040                	addi	s0,sp,4
 392:	0000                	unimp
 394:	fa00                	sd	s0,48(a2)
 396:	0022                	c.slli	zero,0x8
 398:	0040                	addi	s0,sp,4
 39a:	0000                	unimp
 39c:	0100                	addi	s0,sp,128
 39e:	005f fa07 0022      	.byte	0x5f, 0x00, 0x07, 0xfa, 0x22, 0x00
 3a4:	0040                	addi	s0,sp,4
 3a6:	0000                	unimp
 3a8:	0a00                	addi	s0,sp,272
 3aa:	00400023          	sb	tp,0(zero) # 0 <_prog_start-0x40002000>
 3ae:	0000                	unimp
 3b0:	0300                	addi	s0,sp,384
 3b2:	ff09                	bnez	a4,2cc <_prog_start-0x40001d34>
 3b4:	009f 0607 0023      	.byte	0x9f, 0x00, 0x07, 0x06, 0x23, 0x00
 3ba:	0040                	addi	s0,sp,4
 3bc:	0000                	unimp
 3be:	0a00                	addi	s0,sp,272
 3c0:	00400023          	sb	tp,0(zero) # 0 <_prog_start-0x40002000>
 3c4:	0000                	unimp
 3c6:	0100                	addi	s0,sp,128
 3c8:	005f 0a07 0023      	.byte	0x5f, 0x00, 0x07, 0x0a, 0x23, 0x00
 3ce:	0040                	addi	s0,sp,4
 3d0:	0000                	unimp
 3d2:	1a00                	addi	s0,sp,304
 3d4:	00400023          	sb	tp,0(zero) # 0 <_prog_start-0x40002000>
 3d8:	0000                	unimp
 3da:	0300                	addi	s0,sp,384
 3dc:	ff09                	bnez	a4,2f6 <_prog_start-0x40001d0a>
 3de:	009f 1607 0023      	.byte	0x9f, 0x00, 0x07, 0x16, 0x23, 0x00
 3e4:	0040                	addi	s0,sp,4
 3e6:	0000                	unimp
 3e8:	1a00                	addi	s0,sp,304
 3ea:	00400023          	sb	tp,0(zero) # 0 <_prog_start-0x40002000>
 3ee:	0000                	unimp
 3f0:	0100                	addi	s0,sp,128
 3f2:	005f 4207 0023      	.byte	0x5f, 0x00, 0x07, 0x42, 0x23, 0x00
 3f8:	0040                	addi	s0,sp,4
 3fa:	0000                	unimp
 3fc:	5000                	lw	s0,32(s0)
 3fe:	00400023          	sb	tp,0(zero) # 0 <_prog_start-0x40002000>
 402:	0000                	unimp
 404:	0b00                	addi	s0,sp,400
 406:	007e                	c.slli	zero,0x1f
 408:	ff08                	sd	a0,56(a4)
 40a:	301a                	fld	ft0,416(sp)
 40c:	082e                	slli	a6,a6,0xb
 40e:	1aff                	.2byte	0x1aff
 410:	009f 4207 0023      	.byte	0x9f, 0x00, 0x07, 0x42, 0x23, 0x00
 416:	0040                	addi	s0,sp,4
 418:	0000                	unimp
 41a:	4c00                	lw	s0,24(s0)
 41c:	00400023          	sb	tp,0(zero) # 0 <_prog_start-0x40002000>
 420:	0000                	unimp
 422:	0300                	addi	s0,sp,384
 424:	ff09                	bnez	a4,33e <_prog_start-0x40001cc2>
 426:	009f 4807 0023      	.byte	0x9f, 0x00, 0x07, 0x48, 0x23, 0x00
 42c:	0040                	addi	s0,sp,4
 42e:	0000                	unimp
 430:	4c00                	lw	s0,24(s0)
 432:	00400023          	sb	tp,0(zero) # 0 <_prog_start-0x40002000>
 436:	0000                	unimp
 438:	0100                	addi	s0,sp,128
 43a:	005f 5407 0023      	.byte	0x5f, 0x00, 0x07, 0x54, 0x23, 0x00
 440:	0040                	addi	s0,sp,4
 442:	0000                	unimp
 444:	aa00                	fsd	fs0,16(a2)
 446:	00400023          	sb	tp,0(zero) # 0 <_prog_start-0x40002000>
 44a:	0000                	unimp
 44c:	0400                	addi	s0,sp,512
 44e:	4b40                	lw	s0,20(a4)
 450:	9f24                	.2byte	0x9f24
 452:	0023aa07          	flw	fs4,2(t2)
 456:	0040                	addi	s0,sp,4
 458:	0000                	unimp
 45a:	ca00                	sw	s0,16(a2)
 45c:	00400023          	sb	tp,0(zero) # 0 <_prog_start-0x40002000>
 460:	0000                	unimp
 462:	0100                	addi	s0,sp,128
 464:	0760                	addi	s0,sp,908
 466:	23ca                	fld	ft7,144(sp)
 468:	4000                	lw	s0,0(s0)
 46a:	0000                	unimp
 46c:	0000                	unimp
 46e:	2418                	fld	fa4,8(s0)
 470:	4000                	lw	s0,0(s0)
 472:	0000                	unimp
 474:	0000                	unimp
 476:	5b01                	li	s6,-32
 478:	00241807          	.4byte	0x241807
 47c:	0040                	addi	s0,sp,4
 47e:	0000                	unimp
 480:	5c00                	lw	s0,56(s0)
 482:	0024                	addi	s1,sp,8
 484:	0040                	addi	s0,sp,4
 486:	0000                	unimp
 488:	0100                	addi	s0,sp,128
 48a:	0755                	addi	a4,a4,21 # 1a015 <_prog_start-0x3ffe7feb>
 48c:	24b2                	fld	fs1,264(sp)
 48e:	4000                	lw	s0,0(s0)
 490:	0000                	unimp
 492:	0000                	unimp
 494:	24bd                	addiw	s1,s1,15
 496:	4000                	lw	s0,0(s0)
 498:	0000                	unimp
 49a:	0000                	unimp
 49c:	5501                	li	a0,-32
 49e:	0024c207          	.4byte	0x24c207
 4a2:	0040                	addi	s0,sp,4
 4a4:	0000                	unimp
 4a6:	d600                	sw	s0,40(a2)
 4a8:	0024                	addi	s1,sp,8
 4aa:	0040                	addi	s0,sp,4
 4ac:	0000                	unimp
 4ae:	0400                	addi	s0,sp,512
 4b0:	4b40                	lw	s0,20(a4)
 4b2:	9f24                	.2byte	0x9f24
 4b4:	0700                	addi	s0,sp,896
 4b6:	2354                	fld	fa3,128(a4)
 4b8:	4000                	lw	s0,0(s0)
 4ba:	0000                	unimp
 4bc:	0000                	unimp
 4be:	23aa                	fld	ft7,136(sp)
 4c0:	4000                	lw	s0,0(s0)
 4c2:	0000                	unimp
 4c4:	0000                	unimp
 4c6:	3402                	fld	fs0,32(sp)
 4c8:	079f 24c2 4000      	.byte	0x9f, 0x07, 0xc2, 0x24, 0x00, 0x40
 4ce:	0000                	unimp
 4d0:	0000                	unimp
 4d2:	24d6                	fld	fs1,336(sp)
 4d4:	4000                	lw	s0,0(s0)
 4d6:	0000                	unimp
 4d8:	0000                	unimp
 4da:	3402                	fld	fs0,32(sp)
 4dc:	009f 5407 0023      	.byte	0x9f, 0x00, 0x07, 0x54, 0x23, 0x00
 4e2:	0040                	addi	s0,sp,4
 4e4:	0000                	unimp
 4e6:	5c00                	lw	s0,56(s0)
 4e8:	0024                	addi	s1,sp,8
 4ea:	0040                	addi	s0,sp,4
 4ec:	0000                	unimp
 4ee:	0200                	addi	s0,sp,256
 4f0:	9f30                	.2byte	0x9f30
 4f2:	00245c07          	.4byte	0x245c07
 4f6:	0040                	addi	s0,sp,4
 4f8:	0000                	unimp
 4fa:	a000                	fsd	fs0,0(s0)
 4fc:	0024                	addi	s1,sp,8
 4fe:	0040                	addi	s0,sp,4
 500:	0000                	unimp
 502:	0100                	addi	s0,sp,128
 504:	0758                	addi	a4,sp,900
 506:	24b2                	fld	fs1,264(sp)
 508:	4000                	lw	s0,0(s0)
 50a:	0000                	unimp
 50c:	0000                	unimp
 50e:	24be                	fld	fs1,456(sp)
 510:	4000                	lw	s0,0(s0)
 512:	0000                	unimp
 514:	0000                	unimp
 516:	3002                	fld	ft0,32(sp)
 518:	079f 24be 4000      	.byte	0x9f, 0x07, 0xbe, 0x24, 0x00, 0x40
 51e:	0000                	unimp
 520:	0000                	unimp
 522:	24c2                	fld	fs1,16(sp)
 524:	4000                	lw	s0,0(s0)
 526:	0000                	unimp
 528:	0000                	unimp
 52a:	3102                	fld	ft2,32(sp)
 52c:	079f 24c2 4000      	.byte	0x9f, 0x07, 0xc2, 0x24, 0x00, 0x40
 532:	0000                	unimp
 534:	0000                	unimp
 536:	24d6                	fld	fs1,336(sp)
 538:	4000                	lw	s0,0(s0)
 53a:	0000                	unimp
 53c:	0000                	unimp
 53e:	3002                	fld	ft0,32(sp)
 540:	009f aa07 0023      	.byte	0x9f, 0x00, 0x07, 0xaa, 0x23, 0x00
 546:	0040                	addi	s0,sp,4
 548:	0000                	unimp
 54a:	ce00                	sw	s0,24(a2)
 54c:	00400023          	sb	tp,0(zero) # 0 <_prog_start-0x40002000>
 550:	0000                	unimp
 552:	0200                	addi	s0,sp,256
 554:	9f30                	.2byte	0x9f30
 556:	0023ce07          	.4byte	0x23ce07
 55a:	0040                	addi	s0,sp,4
 55c:	0000                	unimp
 55e:	e400                	sd	s0,8(s0)
 560:	00400023          	sb	tp,0(zero) # 0 <_prog_start-0x40002000>
 564:	0000                	unimp
 566:	0100                	addi	s0,sp,128
 568:	075c                	addi	a5,sp,900
 56a:	241e                	fld	fs0,448(sp)
 56c:	4000                	lw	s0,0(s0)
 56e:	0000                	unimp
 570:	0000                	unimp
 572:	245c                	fld	fa5,136(s0)
 574:	4000                	lw	s0,0(s0)
 576:	0000                	unimp
 578:	0000                	unimp
 57a:	5c01                	li	s8,-32
 57c:	0024b207          	fld	ft4,2(s1)
 580:	0040                	addi	s0,sp,4
 582:	0000                	unimp
 584:	bd00                	fsd	fs0,56(a0)
 586:	0024                	addi	s1,sp,8
 588:	0040                	addi	s0,sp,4
 58a:	0000                	unimp
 58c:	0100                	addi	s0,sp,128
 58e:	005c                	addi	a5,sp,4
 590:	00244007          	.4byte	0x244007
 594:	0040                	addi	s0,sp,4
 596:	0000                	unimp
 598:	4e00                	lw	s0,24(a2)
 59a:	0024                	addi	s1,sp,8
 59c:	0040                	addi	s0,sp,4
 59e:	0000                	unimp
 5a0:	0100                	addi	s0,sp,128
 5a2:	075e                	slli	a4,a4,0x17
 5a4:	244e                	fld	fs0,208(sp)
 5a6:	4000                	lw	s0,0(s0)
 5a8:	0000                	unimp
 5aa:	0000                	unimp
 5ac:	245c                	fld	fa5,136(s0)
 5ae:	4000                	lw	s0,0(s0)
 5b0:	0000                	unimp
 5b2:	0000                	unimp
 5b4:	7b09                	lui	s6,0xfffe2
 5b6:	0800                	addi	s0,sp,16
 5b8:	1aff                	.2byte	0x1aff
 5ba:	007e                	c.slli	zero,0x1f
 5bc:	9f21                	addw	a4,a4,s0
 5be:	0024b207          	fld	ft4,2(s1)
 5c2:	0040                	addi	s0,sp,4
 5c4:	0000                	unimp
 5c6:	bd00                	fsd	fs0,56(a0)
 5c8:	0024                	addi	s1,sp,8
 5ca:	0040                	addi	s0,sp,4
 5cc:	0000                	unimp
 5ce:	0900                	addi	s0,sp,144
 5d0:	ff08007b          	.4byte	0xff08007b
 5d4:	7e1a                	ld	t3,416(sp)
 5d6:	2100                	fld	fs0,0(a0)
 5d8:	009f aa07 0023      	.byte	0x9f, 0x00, 0x07, 0xaa, 0x23, 0x00
 5de:	0040                	addi	s0,sp,4
 5e0:	0000                	unimp
 5e2:	ce00                	sw	s0,24(a2)
 5e4:	00400023          	sb	tp,0(zero) # 0 <_prog_start-0x40002000>
 5e8:	0000                	unimp
 5ea:	0400                	addi	s0,sp,512
 5ec:	000a                	c.slli	zero,0x2
 5ee:	9f02                	jalr	t5
 5f0:	0700                	addi	s0,sp,896
 5f2:	23ec                	fld	fa1,192(a5)
 5f4:	4000                	lw	s0,0(s0)
 5f6:	0000                	unimp
 5f8:	0000                	unimp
 5fa:	242a                	fld	fs0,136(sp)
 5fc:	4000                	lw	s0,0(s0)
 5fe:	0000                	unimp
 600:	0000                	unimp
 602:	5e01                	li	t3,-32
 604:	0700                	addi	s0,sp,896
 606:	241c                	fld	fa5,8(s0)
 608:	4000                	lw	s0,0(s0)
 60a:	0000                	unimp
 60c:	0000                	unimp
 60e:	241e                	fld	fs0,448(sp)
 610:	4000                	lw	s0,0(s0)
 612:	0000                	unimp
 614:	0000                	unimp
 616:	5e01                	li	t3,-32
 618:	0700                	addi	s0,sp,896
 61a:	23ce                	fld	ft7,208(sp)
 61c:	4000                	lw	s0,0(s0)
 61e:	0000                	unimp
 620:	0000                	unimp
 622:	23ec                	fld	fa1,192(a5)
 624:	4000                	lw	s0,0(s0)
 626:	0000                	unimp
 628:	0000                	unimp
 62a:	9fff0903          	lb	s2,-1537(t5)
 62e:	0700                	addi	s0,sp,896
 630:	23d8                	fld	fa4,128(a5)
 632:	4000                	lw	s0,0(s0)
 634:	0000                	unimp
 636:	0000                	unimp
 638:	23ec                	fld	fa1,192(a5)
 63a:	4000                	lw	s0,0(s0)
 63c:	0000                	unimp
 63e:	0000                	unimp
 640:	5e01                	li	t3,-32
 642:	0700                	addi	s0,sp,896
 644:	23ae                	fld	ft7,200(sp)
 646:	4000                	lw	s0,0(s0)
 648:	0000                	unimp
 64a:	0000                	unimp
 64c:	23ba                	fld	ft7,392(sp)
 64e:	4000                	lw	s0,0(s0)
 650:	0000                	unimp
 652:	0000                	unimp
 654:	9fff0903          	lb	s2,-1537(t5)
 658:	0700                	addi	s0,sp,896
 65a:	23b6                	fld	ft7,328(sp)
 65c:	4000                	lw	s0,0(s0)
 65e:	0000                	unimp
 660:	0000                	unimp
 662:	23ba                	fld	ft7,392(sp)
 664:	4000                	lw	s0,0(s0)
 666:	0000                	unimp
 668:	0000                	unimp
 66a:	5e01                	li	t3,-32
 66c:	0700                	addi	s0,sp,896
 66e:	2426                	fld	fs0,72(sp)
 670:	4000                	lw	s0,0(s0)
 672:	0000                	unimp
 674:	0000                	unimp
 676:	2434                	fld	fa3,72(s0)
 678:	4000                	lw	s0,0(s0)
 67a:	0000                	unimp
 67c:	0000                	unimp
 67e:	9fff0903          	lb	s2,-1537(t5)
 682:	0700                	addi	s0,sp,896
 684:	2430                	fld	fa2,72(s0)
 686:	4000                	lw	s0,0(s0)
 688:	0000                	unimp
 68a:	0000                	unimp
 68c:	2434                	fld	fa3,72(s0)
 68e:	4000                	lw	s0,0(s0)
 690:	0000                	unimp
 692:	0000                	unimp
 694:	5e01                	li	t3,-32
 696:	0700                	addi	s0,sp,896
 698:	2440                	fld	fs0,136(s0)
 69a:	4000                	lw	s0,0(s0)
 69c:	0000                	unimp
 69e:	0000                	unimp
 6a0:	244e                	fld	fs0,208(sp)
 6a2:	4000                	lw	s0,0(s0)
 6a4:	0000                	unimp
 6a6:	0000                	unimp
 6a8:	9fff0903          	lb	s2,-1537(t5)
 6ac:	0700                	addi	s0,sp,896
 6ae:	244a                	fld	fs0,144(sp)
 6b0:	4000                	lw	s0,0(s0)
 6b2:	0000                	unimp
 6b4:	0000                	unimp
 6b6:	244e                	fld	fs0,208(sp)
 6b8:	4000                	lw	s0,0(s0)
 6ba:	0000                	unimp
 6bc:	0000                	unimp
 6be:	5b01                	li	s6,-32
 6c0:	0700                	addi	s0,sp,896
 6c2:	245c                	fld	fa5,136(s0)
 6c4:	4000                	lw	s0,0(s0)
 6c6:	0000                	unimp
 6c8:	0000                	unimp
 6ca:	2470                	fld	fa2,200(s0)
 6cc:	4000                	lw	s0,0(s0)
 6ce:	0000                	unimp
 6d0:	0000                	unimp
 6d2:	9fff0903          	lb	s2,-1537(t5)
 6d6:	0700                	addi	s0,sp,896
 6d8:	246c                	fld	fa1,200(s0)
 6da:	4000                	lw	s0,0(s0)
 6dc:	0000                	unimp
 6de:	0000                	unimp
 6e0:	2470                	fld	fa2,200(s0)
 6e2:	4000                	lw	s0,0(s0)
 6e4:	0000                	unimp
 6e6:	0000                	unimp
 6e8:	5f01                	li	t5,-32
 6ea:	0700                	addi	s0,sp,896
 6ec:	2480                	fld	fs0,8(s1)
 6ee:	4000                	lw	s0,0(s0)
 6f0:	0000                	unimp
 6f2:	0000                	unimp
 6f4:	2490                	fld	fa2,8(s1)
 6f6:	4000                	lw	s0,0(s0)
 6f8:	0000                	unimp
 6fa:	0000                	unimp
 6fc:	9fff0903          	lb	s2,-1537(t5)
 700:	0700                	addi	s0,sp,896
 702:	248c                	fld	fa1,8(s1)
 704:	4000                	lw	s0,0(s0)
 706:	0000                	unimp
 708:	0000                	unimp
 70a:	2490                	fld	fa2,8(s1)
 70c:	4000                	lw	s0,0(s0)
 70e:	0000                	unimp
 710:	0000                	unimp
 712:	5e01                	li	t3,-32
 714:	0700                	addi	s0,sp,896
 716:	24c2                	fld	fs1,16(sp)
 718:	4000                	lw	s0,0(s0)
 71a:	0000                	unimp
 71c:	0000                	unimp
 71e:	24d2                	fld	fs1,272(sp)
 720:	4000                	lw	s0,0(s0)
 722:	0000                	unimp
 724:	0000                	unimp
 726:	9fff0903          	lb	s2,-1537(t5)
 72a:	0700                	addi	s0,sp,896
 72c:	24ce                	fld	fs1,208(sp)
 72e:	4000                	lw	s0,0(s0)
 730:	0000                	unimp
 732:	0000                	unimp
 734:	24d2                	fld	fs1,272(sp)
 736:	4000                	lw	s0,0(s0)
 738:	0000                	unimp
 73a:	0000                	unimp
 73c:	5e01                	li	t3,-32
 73e:	0700                	addi	s0,sp,896
 740:	2038                	fld	fa4,64(s0)
 742:	4000                	lw	s0,0(s0)
 744:	0000                	unimp
 746:	0000                	unimp
 748:	2058                	fld	fa4,128(s0)
 74a:	4000                	lw	s0,0(s0)
 74c:	0000                	unimp
 74e:	0000                	unimp
 750:	5a01                	li	s4,-32
 752:	00205807          	.4byte	0x205807
 756:	0040                	addi	s0,sp,4
 758:	0000                	unimp
 75a:	fa00                	sd	s0,48(a2)
 75c:	0020                	addi	s0,sp,8
 75e:	0040                	addi	s0,sp,4
 760:	0000                	unimp
 762:	0400                	addi	s0,sp,512
 764:	9f5a01a3          	sb	s5,-1565(s4)
 768:	0700                	addi	s0,sp,896
 76a:	2038                	fld	fa4,64(s0)
 76c:	4000                	lw	s0,0(s0)
 76e:	0000                	unimp
 770:	0000                	unimp
 772:	209a                	fld	ft1,384(sp)
 774:	4000                	lw	s0,0(s0)
 776:	0000                	unimp
 778:	0000                	unimp
 77a:	5b01                	li	s6,-32
 77c:	00209a07          	.4byte	0x209a07
 780:	0040                	addi	s0,sp,4
 782:	0000                	unimp
 784:	fa00                	sd	s0,48(a2)
 786:	0020                	addi	s0,sp,8
 788:	0040                	addi	s0,sp,4
 78a:	0000                	unimp
 78c:	0400                	addi	s0,sp,512
 78e:	9f5b01a3          	sb	s5,-1565(s6) # fffffffffffe19e3 <_sp+0xffffffff8ffe09e3>
 792:	0700                	addi	s0,sp,896
 794:	2038                	fld	fa4,64(s0)
 796:	4000                	lw	s0,0(s0)
 798:	0000                	unimp
 79a:	0000                	unimp
 79c:	20c6                	fld	ft1,80(sp)
 79e:	4000                	lw	s0,0(s0)
 7a0:	0000                	unimp
 7a2:	0000                	unimp
 7a4:	5c01                	li	s8,-32
 7a6:	0020c607          	.4byte	0x20c607
 7aa:	0040                	addi	s0,sp,4
 7ac:	0000                	unimp
 7ae:	fa00                	sd	s0,48(a2)
 7b0:	0020                	addi	s0,sp,8
 7b2:	0040                	addi	s0,sp,4
 7b4:	0000                	unimp
 7b6:	0400                	addi	s0,sp,512
 7b8:	9f5c01a3          	sb	s5,-1565(s8) # fffffffffffe19e3 <_sp+0xffffffff8ffe09e3>
 7bc:	0700                	addi	s0,sp,896
 7be:	20d2                	fld	ft1,272(sp)
 7c0:	4000                	lw	s0,0(s0)
 7c2:	0000                	unimp
 7c4:	0000                	unimp
 7c6:	20f6                	fld	ft1,344(sp)
 7c8:	4000                	lw	s0,0(s0)
 7ca:	0000                	unimp
 7cc:	0000                	unimp
 7ce:	5801                	li	a6,-32
 7d0:	0020f607          	.4byte	0x20f607
 7d4:	0040                	addi	s0,sp,4
 7d6:	0000                	unimp
 7d8:	fa00                	sd	s0,48(a2)
 7da:	0020                	addi	s0,sp,8
 7dc:	0040                	addi	s0,sp,4
 7de:	0000                	unimp
 7e0:	0100                	addi	s0,sp,128
 7e2:	005a                	c.slli	zero,0x16
 7e4:	00204607          	.4byte	0x204607
 7e8:	0040                	addi	s0,sp,4
 7ea:	0000                	unimp
 7ec:	5600                	lw	s0,40(a2)
 7ee:	0020                	addi	s0,sp,8
 7f0:	0040                	addi	s0,sp,4
 7f2:	0000                	unimp
 7f4:	0300                	addi	s0,sp,384
 7f6:	ff09                	bnez	a4,710 <_prog_start-0x400018f0>
 7f8:	009f 5207 0020      	.byte	0x9f, 0x00, 0x07, 0x52, 0x20, 0x00
 7fe:	0040                	addi	s0,sp,4
 800:	0000                	unimp
 802:	5600                	lw	s0,40(a2)
 804:	0020                	addi	s0,sp,8
 806:	0040                	addi	s0,sp,4
 808:	0000                	unimp
 80a:	0100                	addi	s0,sp,128
 80c:	005f 5607 0020      	.byte	0x5f, 0x00, 0x07, 0x56, 0x20, 0x00
 812:	0040                	addi	s0,sp,4
 814:	0000                	unimp
 816:	5800                	lw	s0,48(s0)
 818:	0020                	addi	s0,sp,8
 81a:	0040                	addi	s0,sp,4
 81c:	0000                	unimp
 81e:	0100                	addi	s0,sp,128
 820:	075a                	slli	a4,a4,0x16
 822:	2058                	fld	fa4,128(s0)
 824:	4000                	lw	s0,0(s0)
 826:	0000                	unimp
 828:	0000                	unimp
 82a:	2064                	fld	fs1,192(s0)
 82c:	4000                	lw	s0,0(s0)
 82e:	0000                	unimp
 830:	0000                	unimp
 832:	a304                	fsd	fs1,0(a4)
 834:	5a01                	li	s4,-32
 836:	009f 6007 0020      	.byte	0x9f, 0x00, 0x07, 0x60, 0x20, 0x00
 83c:	0040                	addi	s0,sp,4
 83e:	0000                	unimp
 840:	6400                	ld	s0,8(s0)
 842:	0020                	addi	s0,sp,8
 844:	0040                	addi	s0,sp,4
 846:	0000                	unimp
 848:	0100                	addi	s0,sp,128
 84a:	005f 6807 0020      	.byte	0x5f, 0x00, 0x07, 0x68, 0x20, 0x00
 850:	0040                	addi	s0,sp,4
 852:	0000                	unimp
 854:	6e00                	ld	s0,24(a2)
 856:	0020                	addi	s0,sp,8
 858:	0040                	addi	s0,sp,4
 85a:	0000                	unimp
 85c:	0100                	addi	s0,sp,128
 85e:	075f 206e 4000      	.byte	0x5f, 0x07, 0x6e, 0x20, 0x00, 0x40
 864:	0000                	unimp
 866:	0000                	unimp
 868:	2074                	fld	fa3,192(s0)
 86a:	4000                	lw	s0,0(s0)
 86c:	0000                	unimp
 86e:	0000                	unimp
 870:	00c87e03          	.4byte	0xc87e03
 874:	0700                	addi	s0,sp,896
 876:	2070                	fld	fa2,192(s0)
 878:	4000                	lw	s0,0(s0)
 87a:	0000                	unimp
 87c:	0000                	unimp
 87e:	2074                	fld	fa3,192(s0)
 880:	4000                	lw	s0,0(s0)
 882:	0000                	unimp
 884:	0000                	unimp
 886:	5f01                	li	t5,-32
 888:	0700                	addi	s0,sp,896
 88a:	2074                	fld	fa3,192(s0)
 88c:	4000                	lw	s0,0(s0)
 88e:	0000                	unimp
 890:	0000                	unimp
 892:	2082                	fld	ft1,0(sp)
 894:	4000                	lw	s0,0(s0)
 896:	0000                	unimp
 898:	0000                	unimp
 89a:	7b05                	lui	s6,0xfffe1
 89c:	4000                	lw	s0,0(s0)
 89e:	9f25                	addw	a4,a4,s1
 8a0:	0700                	addi	s0,sp,896
 8a2:	207e                	fld	ft0,472(sp)
 8a4:	4000                	lw	s0,0(s0)
 8a6:	0000                	unimp
 8a8:	0000                	unimp
 8aa:	2082                	fld	ft1,0(sp)
 8ac:	4000                	lw	s0,0(s0)
 8ae:	0000                	unimp
 8b0:	0000                	unimp
 8b2:	5f01                	li	t5,-32
 8b4:	0700                	addi	s0,sp,896
 8b6:	2082                	fld	ft1,0(sp)
 8b8:	4000                	lw	s0,0(s0)
 8ba:	0000                	unimp
 8bc:	0000                	unimp
 8be:	2096                	fld	ft1,320(sp)
 8c0:	4000                	lw	s0,0(s0)
 8c2:	0000                	unimp
 8c4:	0000                	unimp
 8c6:	7b05                	lui	s6,0xfffe1
 8c8:	3800                	fld	fs0,48(s0)
 8ca:	9f25                	addw	a4,a4,s1
 8cc:	0700                	addi	s0,sp,896
 8ce:	2092                	fld	ft1,256(sp)
 8d0:	4000                	lw	s0,0(s0)
 8d2:	0000                	unimp
 8d4:	0000                	unimp
 8d6:	2096                	fld	ft1,320(sp)
 8d8:	4000                	lw	s0,0(s0)
 8da:	0000                	unimp
 8dc:	0000                	unimp
 8de:	5f01                	li	t5,-32
 8e0:	0700                	addi	s0,sp,896
 8e2:	2096                	fld	ft1,320(sp)
 8e4:	4000                	lw	s0,0(s0)
 8e6:	0000                	unimp
 8e8:	0000                	unimp
 8ea:	20a6                	fld	ft1,72(sp)
 8ec:	4000                	lw	s0,0(s0)
 8ee:	0000                	unimp
 8f0:	0000                	unimp
 8f2:	5b01                	li	s6,-32
 8f4:	0700                	addi	s0,sp,896
 8f6:	20a2                	fld	ft1,8(sp)
 8f8:	4000                	lw	s0,0(s0)
 8fa:	0000                	unimp
 8fc:	0000                	unimp
 8fe:	20a6                	fld	ft1,72(sp)
 900:	4000                	lw	s0,0(s0)
 902:	0000                	unimp
 904:	0000                	unimp
 906:	5f01                	li	t5,-32
 908:	0700                	addi	s0,sp,896
 90a:	20a6                	fld	ft1,72(sp)
 90c:	4000                	lw	s0,0(s0)
 90e:	0000                	unimp
 910:	0000                	unimp
 912:	20c6                	fld	ft1,80(sp)
 914:	4000                	lw	s0,0(s0)
 916:	0000                	unimp
 918:	0000                	unimp
 91a:	5c01                	li	s8,-32
 91c:	0700                	addi	s0,sp,896
 91e:	20b2                	fld	ft1,264(sp)
 920:	4000                	lw	s0,0(s0)
 922:	0000                	unimp
 924:	0000                	unimp
 926:	20c6                	fld	ft1,80(sp)
 928:	4000                	lw	s0,0(s0)
 92a:	0000                	unimp
 92c:	0000                	unimp
 92e:	5f01                	li	t5,-32
 930:	0700                	addi	s0,sp,896
 932:	20c6                	fld	ft1,80(sp)
 934:	4000                	lw	s0,0(s0)
 936:	0000                	unimp
 938:	0000                	unimp
 93a:	20d2                	fld	ft1,272(sp)
 93c:	4000                	lw	s0,0(s0)
 93e:	0000                	unimp
 940:	0000                	unimp
 942:	9fff0903          	lb	s2,-1537(t5)
 946:	0700                	addi	s0,sp,896
 948:	20ce                	fld	ft1,208(sp)
 94a:	4000                	lw	s0,0(s0)
 94c:	0000                	unimp
 94e:	0000                	unimp
 950:	20d2                	fld	ft1,272(sp)
 952:	4000                	lw	s0,0(s0)
 954:	0000                	unimp
 956:	0000                	unimp
 958:	5801                	li	a6,-32
 95a:	ce00                	sw	s0,24(a2)
 95c:	05000003          	lb	zero,80(zero) # 50 <_prog_start-0x40001fb0>
 960:	0800                	addi	s0,sp,16
 962:	0000                	unimp
 964:	0000                	unimp
 966:	0700                	addi	s0,sp,896
 968:	2516                	fld	fa0,320(sp)
 96a:	4000                	lw	s0,0(s0)
 96c:	0000                	unimp
 96e:	0000                	unimp
 970:	252e                	fld	fa0,200(sp)
 972:	4000                	lw	s0,0(s0)
 974:	0000                	unimp
 976:	0000                	unimp
 978:	5a01                	li	s4,-32
 97a:	00252e07          	flw	ft8,2(a0) # 1a002 <_prog_start-0x3ffe7ffe>
 97e:	0040                	addi	s0,sp,4
 980:	0000                	unimp
 982:	3600                	fld	fs0,40(a2)
 984:	0025                	c.nop	9
 986:	0040                	addi	s0,sp,4
 988:	0000                	unimp
 98a:	0300                	addi	s0,sp,384
 98c:	017a                	slli	sp,sp,0x1e
 98e:	079f 2536 4000      	.byte	0x9f, 0x07, 0x36, 0x25, 0x00, 0x40
 994:	0000                	unimp
 996:	0000                	unimp
 998:	2590                	fld	fa2,8(a1)
 99a:	4000                	lw	s0,0(s0)
 99c:	0000                	unimp
 99e:	0000                	unimp
 9a0:	5b01                	li	s6,-32
 9a2:	00259407          	.4byte	0x259407
 9a6:	0040                	addi	s0,sp,4
 9a8:	0000                	unimp
 9aa:	3000                	fld	fs0,32(s0)
 9ac:	0026                	c.slli	zero,0x9
 9ae:	0040                	addi	s0,sp,4
 9b0:	0000                	unimp
 9b2:	0100                	addi	s0,sp,128
 9b4:	2e07005b          	.4byte	0x2e07005b
 9b8:	0025                	c.nop	9
 9ba:	0040                	addi	s0,sp,4
 9bc:	0000                	unimp
 9be:	4e00                	lw	s0,24(a2)
 9c0:	0025                	c.nop	9
 9c2:	0040                	addi	s0,sp,4
 9c4:	0000                	unimp
 9c6:	0200                	addi	s0,sp,256
 9c8:	9f30                	.2byte	0x9f30
 9ca:	00254e07          	.4byte	0x254e07
 9ce:	0040                	addi	s0,sp,4
 9d0:	0000                	unimp
 9d2:	6e00                	ld	s0,24(a2)
 9d4:	0025                	c.nop	9
 9d6:	0040                	addi	s0,sp,4
 9d8:	0000                	unimp
 9da:	0100                	addi	s0,sp,128
 9dc:	075e                	slli	a4,a4,0x17
 9de:	2586                	fld	fa1,64(sp)
 9e0:	4000                	lw	s0,0(s0)
 9e2:	0000                	unimp
 9e4:	0000                	unimp
 9e6:	2590                	fld	fa2,8(a1)
 9e8:	4000                	lw	s0,0(s0)
 9ea:	0000                	unimp
 9ec:	0000                	unimp
 9ee:	5e01                	li	t3,-32
 9f0:	00259407          	.4byte	0x259407
 9f4:	0040                	addi	s0,sp,4
 9f6:	0000                	unimp
 9f8:	9a00                	.2byte	0x9a00
 9fa:	0025                	c.nop	9
 9fc:	0040                	addi	s0,sp,4
 9fe:	0000                	unimp
 a00:	0100                	addi	s0,sp,128
 a02:	075e                	slli	a4,a4,0x17
 a04:	25d4                	fld	fa3,136(a1)
 a06:	4000                	lw	s0,0(s0)
 a08:	0000                	unimp
 a0a:	0000                	unimp
 a0c:	25e6                	fld	fa1,88(sp)
 a0e:	4000                	lw	s0,0(s0)
 a10:	0000                	unimp
 a12:	0000                	unimp
 a14:	5e01                	li	t3,-32
 a16:	0025fa07          	.4byte	0x25fa07
 a1a:	0040                	addi	s0,sp,4
 a1c:	0000                	unimp
 a1e:	1800                	addi	s0,sp,48
 a20:	0026                	c.slli	zero,0x9
 a22:	0040                	addi	s0,sp,4
 a24:	0000                	unimp
 a26:	0200                	addi	s0,sp,256
 a28:	9f30                	.2byte	0x9f30
 a2a:	00262807          	flw	fa6,2(a2)
 a2e:	0040                	addi	s0,sp,4
 a30:	0000                	unimp
 a32:	3000                	fld	fs0,32(s0)
 a34:	0026                	c.slli	zero,0x9
 a36:	0040                	addi	s0,sp,4
 a38:	0000                	unimp
 a3a:	0100                	addi	s0,sp,128
 a3c:	005e                	c.slli	zero,0x17
 a3e:	00252e07          	flw	ft8,2(a0)
 a42:	0040                	addi	s0,sp,4
 a44:	0000                	unimp
 a46:	4e00                	lw	s0,24(a2)
 a48:	0025                	c.nop	9
 a4a:	0040                	addi	s0,sp,4
 a4c:	0000                	unimp
 a4e:	0200                	addi	s0,sp,256
 a50:	9f30                	.2byte	0x9f30
 a52:	00254e07          	.4byte	0x254e07
 a56:	0040                	addi	s0,sp,4
 a58:	0000                	unimp
 a5a:	7200                	ld	s0,32(a2)
 a5c:	0025                	c.nop	9
 a5e:	0040                	addi	s0,sp,4
 a60:	0000                	unimp
 a62:	0100                	addi	s0,sp,128
 a64:	075d                	addi	a4,a4,23
 a66:	2586                	fld	fa1,64(sp)
 a68:	4000                	lw	s0,0(s0)
 a6a:	0000                	unimp
 a6c:	0000                	unimp
 a6e:	2590                	fld	fa2,8(a1)
 a70:	4000                	lw	s0,0(s0)
 a72:	0000                	unimp
 a74:	0000                	unimp
 a76:	5d01                	li	s10,-32
 a78:	00259407          	.4byte	0x259407
 a7c:	0040                	addi	s0,sp,4
 a7e:	0000                	unimp
 a80:	ae00                	fsd	fs0,24(a2)
 a82:	0025                	c.nop	9
 a84:	0040                	addi	s0,sp,4
 a86:	0000                	unimp
 a88:	0100                	addi	s0,sp,128
 a8a:	075d                	addi	a4,a4,23
 a8c:	25d4                	fld	fa3,136(a1)
 a8e:	4000                	lw	s0,0(s0)
 a90:	0000                	unimp
 a92:	0000                	unimp
 a94:	25e0                	fld	fs0,200(a1)
 a96:	4000                	lw	s0,0(s0)
 a98:	0000                	unimp
 a9a:	0000                	unimp
 a9c:	5d01                	li	s10,-32
 a9e:	0025fa07          	.4byte	0x25fa07
 aa2:	0040                	addi	s0,sp,4
 aa4:	0000                	unimp
 aa6:	2e00                	fld	fs0,24(a2)
 aa8:	0026                	c.slli	zero,0x9
 aaa:	0040                	addi	s0,sp,4
 aac:	0000                	unimp
 aae:	0100                	addi	s0,sp,128
 ab0:	005d                	c.nop	23
 ab2:	00252e07          	flw	ft8,2(a0)
 ab6:	0040                	addi	s0,sp,4
 ab8:	0000                	unimp
 aba:	4e00                	lw	s0,24(a2)
 abc:	0025                	c.nop	9
 abe:	0040                	addi	s0,sp,4
 ac0:	0000                	unimp
 ac2:	0200                	addi	s0,sp,256
 ac4:	9f30                	.2byte	0x9f30
 ac6:	00254e07          	.4byte	0x254e07
 aca:	0040                	addi	s0,sp,4
 acc:	0000                	unimp
 ace:	8000                	.2byte	0x8000
 ad0:	0025                	c.nop	9
 ad2:	0040                	addi	s0,sp,4
 ad4:	0000                	unimp
 ad6:	0100                	addi	s0,sp,128
 ad8:	076d                	addi	a4,a4,27
 ada:	2586                	fld	fa1,64(sp)
 adc:	4000                	lw	s0,0(s0)
 ade:	0000                	unimp
 ae0:	0000                	unimp
 ae2:	2590                	fld	fa2,8(a1)
 ae4:	4000                	lw	s0,0(s0)
 ae6:	0000                	unimp
 ae8:	0000                	unimp
 aea:	6d01                	.2byte	0x6d01
 aec:	00259407          	.4byte	0x259407
 af0:	0040                	addi	s0,sp,4
 af2:	0000                	unimp
 af4:	ae00                	fsd	fs0,24(a2)
 af6:	0025                	c.nop	9
 af8:	0040                	addi	s0,sp,4
 afa:	0000                	unimp
 afc:	0100                	addi	s0,sp,128
 afe:	076d                	addi	a4,a4,27
 b00:	25d4                	fld	fa3,136(a1)
 b02:	4000                	lw	s0,0(s0)
 b04:	0000                	unimp
 b06:	0000                	unimp
 b08:	262a                	fld	fa2,136(sp)
 b0a:	4000                	lw	s0,0(s0)
 b0c:	0000                	unimp
 b0e:	0000                	unimp
 b10:	6d01                	.2byte	0x6d01
 b12:	00262c07          	flw	fs8,2(a2)
 b16:	0040                	addi	s0,sp,4
 b18:	0000                	unimp
 b1a:	3000                	fld	fs0,32(s0)
 b1c:	0026                	c.slli	zero,0x9
 b1e:	0040                	addi	s0,sp,4
 b20:	0000                	unimp
 b22:	0100                	addi	s0,sp,128
 b24:	006d                	c.nop	27
 b26:	00252e07          	flw	ft8,2(a0)
 b2a:	0040                	addi	s0,sp,4
 b2c:	0000                	unimp
 b2e:	5400                	lw	s0,40(s0)
 b30:	0025                	c.nop	9
 b32:	0040                	addi	s0,sp,4
 b34:	0000                	unimp
 b36:	0100                	addi	s0,sp,128
 b38:	0756                	slli	a4,a4,0x15
 b3a:	258c                	fld	fa1,8(a1)
 b3c:	4000                	lw	s0,0(s0)
 b3e:	0000                	unimp
 b40:	0000                	unimp
 b42:	2594                	fld	fa3,8(a1)
 b44:	4000                	lw	s0,0(s0)
 b46:	0000                	unimp
 b48:	0000                	unimp
 b4a:	5601                	li	a2,-32
 b4c:	0025fa07          	.4byte	0x25fa07
 b50:	0040                	addi	s0,sp,4
 b52:	0000                	unimp
 b54:	1800                	addi	s0,sp,48
 b56:	0026                	c.slli	zero,0x9
 b58:	0040                	addi	s0,sp,4
 b5a:	0000                	unimp
 b5c:	0100                	addi	s0,sp,128
 b5e:	0056                	c.slli	zero,0x15
 b60:	0025a007          	flw	ft0,2(a1)
 b64:	0040                	addi	s0,sp,4
 b66:	0000                	unimp
 b68:	a600                	fsd	fs0,8(a2)
 b6a:	0025                	c.nop	9
 b6c:	0040                	addi	s0,sp,4
 b6e:	0000                	unimp
 b70:	0100                	addi	s0,sp,128
 b72:	25ae076f          	jal	a4,e0dcc <_prog_start-0x3ff21234>
 b76:	4000                	lw	s0,0(s0)
 b78:	0000                	unimp
 b7a:	0000                	unimp
 b7c:	25d4                	fld	fa3,136(a1)
 b7e:	4000                	lw	s0,0(s0)
 b80:	0000                	unimp
 b82:	0000                	unimp
 b84:	6f01                	.2byte	0x6f01
 b86:	00261e07          	.4byte	0x261e07
 b8a:	0040                	addi	s0,sp,4
 b8c:	0000                	unimp
 b8e:	2800                	fld	fs0,16(s0)
 b90:	0026                	c.slli	zero,0x9
 b92:	0040                	addi	s0,sp,4
 b94:	0000                	unimp
 b96:	0100                	addi	s0,sp,128
 b98:	a007006f          	j	fffffffffff70d98 <_sp+0xffffffff8ff6fd98>
 b9c:	0025                	c.nop	9
 b9e:	0040                	addi	s0,sp,4
 ba0:	0000                	unimp
 ba2:	a600                	fsd	fs0,8(a2)
 ba4:	0025                	c.nop	9
 ba6:	0040                	addi	s0,sp,4
 ba8:	0000                	unimp
 baa:	0300                	addi	s0,sp,384
 bac:	3c08                	fld	fa0,56(s0)
 bae:	079f 25ae 4000      	.byte	0x9f, 0x07, 0xae, 0x25, 0x00, 0x40
 bb4:	0000                	unimp
 bb6:	0000                	unimp
 bb8:	25d4                	fld	fa3,136(a1)
 bba:	4000                	lw	s0,0(s0)
 bbc:	0000                	unimp
 bbe:	0000                	unimp
 bc0:	5a01                	li	s4,-32
 bc2:	0700                	addi	s0,sp,896
 bc4:	25b6                	fld	fa1,328(sp)
 bc6:	4000                	lw	s0,0(s0)
 bc8:	0000                	unimp
 bca:	0000                	unimp
 bcc:	25d4                	fld	fa3,136(a1)
 bce:	4000                	lw	s0,0(s0)
 bd0:	0000                	unimp
 bd2:	0000                	unimp
 bd4:	5601                	li	a2,-32
 bd6:	0700                	addi	s0,sp,896
 bd8:	25c8                	fld	fa0,136(a1)
 bda:	4000                	lw	s0,0(s0)
 bdc:	0000                	unimp
 bde:	0000                	unimp
 be0:	25cc                	fld	fa1,136(a1)
 be2:	4000                	lw	s0,0(s0)
 be4:	0000                	unimp
 be6:	0000                	unimp
 be8:	5f01                	li	t5,-32
 bea:	0700                	addi	s0,sp,896
 bec:	2608                	fld	fa0,8(a2)
 bee:	4000                	lw	s0,0(s0)
 bf0:	0000                	unimp
 bf2:	0000                	unimp
 bf4:	2610                	fld	fa2,8(a2)
 bf6:	4000                	lw	s0,0(s0)
 bf8:	0000                	unimp
 bfa:	0000                	unimp
 bfc:	5f01                	li	t5,-32
 bfe:	00261207          	.4byte	0x261207
 c02:	0040                	addi	s0,sp,4
 c04:	0000                	unimp
 c06:	1800                	addi	s0,sp,48
 c08:	0026                	c.slli	zero,0x9
 c0a:	0040                	addi	s0,sp,4
 c0c:	0000                	unimp
 c0e:	0100                	addi	s0,sp,128
 c10:	005f 7207 0025      	.byte	0x5f, 0x00, 0x07, 0x72, 0x25, 0x00
 c16:	0040                	addi	s0,sp,4
 c18:	0000                	unimp
 c1a:	8000                	.2byte	0x8000
 c1c:	0025                	c.nop	9
 c1e:	0040                	addi	s0,sp,4
 c20:	0000                	unimp
 c22:	0100                	addi	s0,sp,128
 c24:	005d                	c.nop	23
 c26:	00257207          	.4byte	0x257207
 c2a:	0040                	addi	s0,sp,4
 c2c:	0000                	unimp
 c2e:	8000                	.2byte	0x8000
 c30:	0025                	c.nop	9
 c32:	0040                	addi	s0,sp,4
 c34:	0000                	unimp
 c36:	0400                	addi	s0,sp,512
 c38:	4a49                	li	s4,18
 c3a:	9f24                	.2byte	0x9f24
 c3c:	0700                	addi	s0,sp,896
 c3e:	257c                	fld	fa5,200(a0)
 c40:	4000                	lw	s0,0(s0)
 c42:	0000                	unimp
 c44:	0000                	unimp
 c46:	2580                	fld	fs0,8(a1)
 c48:	4000                	lw	s0,0(s0)
 c4a:	0000                	unimp
 c4c:	0000                	unimp
 c4e:	5f01                	li	t5,-32
 c50:	0700                	addi	s0,sp,896
 c52:	25d8                	fld	fa4,136(a1)
 c54:	4000                	lw	s0,0(s0)
 c56:	0000                	unimp
 c58:	0000                	unimp
 c5a:	25fa                	fld	fa1,408(sp)
 c5c:	4000                	lw	s0,0(s0)
 c5e:	0000                	unimp
 c60:	0000                	unimp
 c62:	5a01                	li	s4,-32
 c64:	0700                	addi	s0,sp,896
 c66:	25e0                	fld	fs0,200(a1)
 c68:	4000                	lw	s0,0(s0)
 c6a:	0000                	unimp
 c6c:	0000                	unimp
 c6e:	25f4                	fld	fa3,200(a1)
 c70:	4000                	lw	s0,0(s0)
 c72:	0000                	unimp
 c74:	0000                	unimp
 c76:	5d01                	li	s10,-32
 c78:	0025f607          	.4byte	0x25f607
 c7c:	0040                	addi	s0,sp,4
 c7e:	0000                	unimp
 c80:	fa00                	sd	s0,48(a2)
 c82:	0025                	c.nop	9
 c84:	0040                	addi	s0,sp,4
 c86:	0000                	unimp
 c88:	0100                	addi	s0,sp,128
 c8a:	005d                	c.nop	23
 c8c:	0025ec07          	.4byte	0x25ec07
 c90:	0040                	addi	s0,sp,4
 c92:	0000                	unimp
 c94:	f000                	sd	s0,32(s0)
 c96:	0025                	c.nop	9
 c98:	0040                	addi	s0,sp,4
 c9a:	0000                	unimp
 c9c:	0100                	addi	s0,sp,128
 c9e:	005f d807 0024      	.byte	0x5f, 0x00, 0x07, 0xd8, 0x24, 0x00
 ca4:	0040                	addi	s0,sp,4
 ca6:	0000                	unimp
 ca8:	e200                	sd	s0,0(a2)
 caa:	0024                	addi	s1,sp,8
 cac:	0040                	addi	s0,sp,4
 cae:	0000                	unimp
 cb0:	0100                	addi	s0,sp,128
 cb2:	075a                	slli	a4,a4,0x16
 cb4:	24e2                	fld	fs1,24(sp)
 cb6:	4000                	lw	s0,0(s0)
 cb8:	0000                	unimp
 cba:	0000                	unimp
 cbc:	2516                	fld	fa0,320(sp)
 cbe:	4000                	lw	s0,0(s0)
 cc0:	0000                	unimp
 cc2:	0000                	unimp
 cc4:	a304                	fsd	fs1,0(a4)
 cc6:	5a01                	li	s4,-32
 cc8:	009f d807 0024      	.byte	0x9f, 0x00, 0x07, 0xd8, 0x24, 0x00
 cce:	0040                	addi	s0,sp,4
 cd0:	0000                	unimp
 cd2:	fa00                	sd	s0,48(a2)
 cd4:	0024                	addi	s1,sp,8
 cd6:	0040                	addi	s0,sp,4
 cd8:	0000                	unimp
 cda:	0100                	addi	s0,sp,128
 cdc:	005a                	c.slli	zero,0x16
 cde:	0024dc07          	.4byte	0x24dc07
 ce2:	0040                	addi	s0,sp,4
 ce4:	0000                	unimp
 ce6:	f000                	sd	s0,32(s0)
 ce8:	0024                	addi	s1,sp,8
 cea:	0040                	addi	s0,sp,4
 cec:	0000                	unimp
 cee:	0100                	addi	s0,sp,128
 cf0:	075d                	addi	a4,a4,23
 cf2:	24f2                	fld	fs1,280(sp)
 cf4:	4000                	lw	s0,0(s0)
 cf6:	0000                	unimp
 cf8:	0000                	unimp
 cfa:	24fa                	fld	fs1,408(sp)
 cfc:	4000                	lw	s0,0(s0)
 cfe:	0000                	unimp
 d00:	0000                	unimp
 d02:	5d01                	li	s10,-32
 d04:	0700                	addi	s0,sp,896
 d06:	24e8                	fld	fa0,200(s1)
 d08:	4000                	lw	s0,0(s0)
 d0a:	0000                	unimp
 d0c:	0000                	unimp
 d0e:	24ec                	fld	fa1,200(s1)
 d10:	4000                	lw	s0,0(s0)
 d12:	0000                	unimp
 d14:	0000                	unimp
 d16:	5f01                	li	t5,-32
 d18:	0700                	addi	s0,sp,896
 d1a:	2500                	fld	fs0,8(a0)
 d1c:	4000                	lw	s0,0(s0)
 d1e:	0000                	unimp
 d20:	0000                	unimp
 d22:	250a                	fld	fa0,128(sp)
 d24:	4000                	lw	s0,0(s0)
 d26:	0000                	unimp
 d28:	0000                	unimp
 d2a:	5f01                	li	t5,-32
	...

Disassembly of section .debug_rnglists:

0000000000000000 <.debug_rnglists>:
   0:	03d6                	slli	t2,t2,0x15
   2:	0000                	unimp
   4:	0005                	c.nop	1
   6:	0008                	.2byte	0x8
   8:	0000                	unimp
   a:	0000                	unimp
   c:	8206                	mv	tp,ra
   e:	0020                	addi	s0,sp,8
  10:	0040                	addi	s0,sp,4
  12:	0000                	unimp
  14:	8200                	.2byte	0x8200
  16:	0020                	addi	s0,sp,8
  18:	0040                	addi	s0,sp,4
  1a:	0000                	unimp
  1c:	0600                	addi	s0,sp,768
  1e:	208a                	fld	ft1,128(sp)
  20:	4000                	lw	s0,0(s0)
  22:	0000                	unimp
  24:	0000                	unimp
  26:	2096                	fld	ft1,320(sp)
  28:	4000                	lw	s0,0(s0)
  2a:	0000                	unimp
  2c:	0000                	unimp
  2e:	0600                	addi	s0,sp,768
  30:	20a6                	fld	ft1,72(sp)
  32:	4000                	lw	s0,0(s0)
  34:	0000                	unimp
  36:	0000                	unimp
  38:	20b6                	fld	ft1,328(sp)
  3a:	4000                	lw	s0,0(s0)
  3c:	0000                	unimp
  3e:	0000                	unimp
  40:	ba06                	fsd	ft1,304(sp)
  42:	0020                	addi	s0,sp,8
  44:	0040                	addi	s0,sp,4
  46:	0000                	unimp
  48:	be00                	fsd	fs0,56(a2)
  4a:	0020                	addi	s0,sp,8
  4c:	0040                	addi	s0,sp,4
  4e:	0000                	unimp
  50:	0000                	unimp
  52:	b606                	fsd	ft1,296(sp)
  54:	0020                	addi	s0,sp,8
  56:	0040                	addi	s0,sp,4
  58:	0000                	unimp
  5a:	ba00                	fsd	fs0,48(a2)
  5c:	0020                	addi	s0,sp,8
  5e:	0040                	addi	s0,sp,4
  60:	0000                	unimp
  62:	0600                	addi	s0,sp,768
  64:	20be                	fld	ft1,456(sp)
  66:	4000                	lw	s0,0(s0)
  68:	0000                	unimp
  6a:	0000                	unimp
  6c:	20c6                	fld	ft1,80(sp)
  6e:	4000                	lw	s0,0(s0)
  70:	0000                	unimp
  72:	0000                	unimp
  74:	c606                	sw	ra,12(sp)
  76:	0020                	addi	s0,sp,8
  78:	0040                	addi	s0,sp,4
  7a:	0000                	unimp
  7c:	d200                	sw	s0,32(a2)
  7e:	0020                	addi	s0,sp,8
  80:	0040                	addi	s0,sp,4
  82:	0000                	unimp
  84:	0000                	unimp
  86:	4206                	lw	tp,64(sp)
  88:	0021                	c.nop	8
  8a:	0040                	addi	s0,sp,4
  8c:	0000                	unimp
  8e:	6800                	ld	s0,16(s0)
  90:	0021                	c.nop	8
  92:	0040                	addi	s0,sp,4
  94:	0000                	unimp
  96:	0600                	addi	s0,sp,768
  98:	2170                	fld	fa2,192(a0)
  9a:	4000                	lw	s0,0(s0)
  9c:	0000                	unimp
  9e:	0000                	unimp
  a0:	2174                	fld	fa3,192(a0)
  a2:	4000                	lw	s0,0(s0)
  a4:	0000                	unimp
  a6:	0000                	unimp
  a8:	0600                	addi	s0,sp,768
  aa:	214c                	fld	fa1,128(a0)
  ac:	4000                	lw	s0,0(s0)
  ae:	0000                	unimp
  b0:	0000                	unimp
  b2:	2150                	fld	fa2,128(a0)
  b4:	4000                	lw	s0,0(s0)
  b6:	0000                	unimp
  b8:	0000                	unimp
  ba:	5206                	lw	tp,96(sp)
  bc:	0021                	c.nop	8
  be:	0040                	addi	s0,sp,4
  c0:	0000                	unimp
  c2:	5600                	lw	s0,40(a2)
  c4:	0021                	c.nop	8
  c6:	0040                	addi	s0,sp,4
  c8:	0000                	unimp
  ca:	0600                	addi	s0,sp,768
  cc:	2158                	fld	fa4,128(a0)
  ce:	4000                	lw	s0,0(s0)
  d0:	0000                	unimp
  d2:	0000                	unimp
  d4:	215c                	fld	fa5,128(a0)
  d6:	4000                	lw	s0,0(s0)
  d8:	0000                	unimp
  da:	0000                	unimp
  dc:	5c06                	lw	s8,96(sp)
  de:	0021                	c.nop	8
  e0:	0040                	addi	s0,sp,4
  e2:	0000                	unimp
  e4:	6400                	ld	s0,8(s0)
  e6:	0021                	c.nop	8
  e8:	0040                	addi	s0,sp,4
  ea:	0000                	unimp
  ec:	0000                	unimp
  ee:	6806                	ld	a6,64(sp)
  f0:	0021                	c.nop	8
  f2:	0040                	addi	s0,sp,4
  f4:	0000                	unimp
  f6:	7000                	ld	s0,32(s0)
  f8:	0021                	c.nop	8
  fa:	0040                	addi	s0,sp,4
  fc:	0000                	unimp
  fe:	0600                	addi	s0,sp,768
 100:	2174                	fld	fa3,192(a0)
 102:	4000                	lw	s0,0(s0)
 104:	0000                	unimp
 106:	0000                	unimp
 108:	219a                	fld	ft3,384(sp)
 10a:	4000                	lw	s0,0(s0)
 10c:	0000                	unimp
 10e:	0000                	unimp
 110:	0600                	addi	s0,sp,768
 112:	21c2                	fld	ft3,16(sp)
 114:	4000                	lw	s0,0(s0)
 116:	0000                	unimp
 118:	0000                	unimp
 11a:	21c6                	fld	ft3,80(sp)
 11c:	4000                	lw	s0,0(s0)
 11e:	0000                	unimp
 120:	0000                	unimp
 122:	ca06                	sw	ra,20(sp)
 124:	0021                	c.nop	8
 126:	0040                	addi	s0,sp,4
 128:	0000                	unimp
 12a:	d600                	sw	s0,40(a2)
 12c:	0021                	c.nop	8
 12e:	0040                	addi	s0,sp,4
 130:	0000                	unimp
 132:	0000                	unimp
 134:	2a06                	fld	fs4,64(sp)
 136:	0022                	c.slli	zero,0x8
 138:	0040                	addi	s0,sp,4
 13a:	0000                	unimp
 13c:	3200                	fld	fs0,32(a2)
 13e:	0022                	c.slli	zero,0x8
 140:	0040                	addi	s0,sp,4
 142:	0000                	unimp
 144:	0600                	addi	s0,sp,768
 146:	2232                	fld	ft4,264(sp)
 148:	4000                	lw	s0,0(s0)
 14a:	0000                	unimp
 14c:	0000                	unimp
 14e:	2242                	fld	ft4,16(sp)
 150:	4000                	lw	s0,0(s0)
 152:	0000                	unimp
 154:	0000                	unimp
 156:	0600                	addi	s0,sp,768
 158:	222a                	fld	ft4,136(sp)
 15a:	4000                	lw	s0,0(s0)
 15c:	0000                	unimp
 15e:	0000                	unimp
 160:	2232                	fld	ft4,264(sp)
 162:	4000                	lw	s0,0(s0)
 164:	0000                	unimp
 166:	0000                	unimp
 168:	3206                	fld	ft4,96(sp)
 16a:	0022                	c.slli	zero,0x8
 16c:	0040                	addi	s0,sp,4
 16e:	0000                	unimp
 170:	3e00                	fld	fs0,56(a2)
 172:	0022                	c.slli	zero,0x8
 174:	0040                	addi	s0,sp,4
 176:	0000                	unimp
 178:	0000                	unimp
 17a:	6006                	.2byte	0x6006
 17c:	0022                	c.slli	zero,0x8
 17e:	0040                	addi	s0,sp,4
 180:	0000                	unimp
 182:	6800                	ld	s0,16(s0)
 184:	0022                	c.slli	zero,0x8
 186:	0040                	addi	s0,sp,4
 188:	0000                	unimp
 18a:	0600                	addi	s0,sp,768
 18c:	226a                	fld	ft4,152(sp)
 18e:	4000                	lw	s0,0(s0)
 190:	0000                	unimp
 192:	0000                	unimp
 194:	2286                	fld	ft5,64(sp)
 196:	4000                	lw	s0,0(s0)
 198:	0000                	unimp
 19a:	0000                	unimp
 19c:	0600                	addi	s0,sp,768
 19e:	2260                	fld	fs0,192(a2)
 1a0:	4000                	lw	s0,0(s0)
 1a2:	0000                	unimp
 1a4:	0000                	unimp
 1a6:	2268                	fld	fa0,192(a2)
 1a8:	4000                	lw	s0,0(s0)
 1aa:	0000                	unimp
 1ac:	0000                	unimp
 1ae:	7806                	ld	a6,96(sp)
 1b0:	0022                	c.slli	zero,0x8
 1b2:	0040                	addi	s0,sp,4
 1b4:	0000                	unimp
 1b6:	8600                	.2byte	0x8600
 1b8:	0022                	c.slli	zero,0x8
 1ba:	0040                	addi	s0,sp,4
 1bc:	0000                	unimp
 1be:	0000                	unimp
 1c0:	6006                	.2byte	0x6006
 1c2:	0022                	c.slli	zero,0x8
 1c4:	0040                	addi	s0,sp,4
 1c6:	0000                	unimp
 1c8:	6800                	ld	s0,16(s0)
 1ca:	0022                	c.slli	zero,0x8
 1cc:	0040                	addi	s0,sp,4
 1ce:	0000                	unimp
 1d0:	0600                	addi	s0,sp,768
 1d2:	2278                	fld	fa4,192(a2)
 1d4:	4000                	lw	s0,0(s0)
 1d6:	0000                	unimp
 1d8:	0000                	unimp
 1da:	2282                	fld	ft5,0(sp)
 1dc:	4000                	lw	s0,0(s0)
 1de:	0000                	unimp
 1e0:	0000                	unimp
 1e2:	0600                	addi	s0,sp,768
 1e4:	22b6                	fld	ft5,328(sp)
 1e6:	4000                	lw	s0,0(s0)
 1e8:	0000                	unimp
 1ea:	0000                	unimp
 1ec:	22ba                	fld	ft5,392(sp)
 1ee:	4000                	lw	s0,0(s0)
 1f0:	0000                	unimp
 1f2:	0000                	unimp
 1f4:	be06                	fsd	ft1,312(sp)
 1f6:	0022                	c.slli	zero,0x8
 1f8:	0040                	addi	s0,sp,4
 1fa:	0000                	unimp
 1fc:	ce00                	sw	s0,24(a2)
 1fe:	0022                	c.slli	zero,0x8
 200:	0040                	addi	s0,sp,4
 202:	0000                	unimp
 204:	0000                	unimp
 206:	3a06                	fld	fs4,96(sp)
 208:	00400023          	sb	tp,0(zero) # 0 <_prog_start-0x40002000>
 20c:	0000                	unimp
 20e:	4000                	lw	s0,0(s0)
 210:	00400023          	sb	tp,0(zero) # 0 <_prog_start-0x40002000>
 214:	0000                	unimp
 216:	0600                	addi	s0,sp,768
 218:	2342                	fld	ft6,16(sp)
 21a:	4000                	lw	s0,0(s0)
 21c:	0000                	unimp
 21e:	0000                	unimp
 220:	2350                	fld	fa2,128(a4)
 222:	4000                	lw	s0,0(s0)
 224:	0000                	unimp
 226:	0000                	unimp
 228:	0600                	addi	s0,sp,768
 22a:	233a                	fld	ft6,392(sp)
 22c:	4000                	lw	s0,0(s0)
 22e:	0000                	unimp
 230:	0000                	unimp
 232:	2340                	fld	fs0,128(a4)
 234:	4000                	lw	s0,0(s0)
 236:	0000                	unimp
 238:	0000                	unimp
 23a:	4206                	lw	tp,64(sp)
 23c:	00400023          	sb	tp,0(zero) # 0 <_prog_start-0x40002000>
 240:	0000                	unimp
 242:	4c00                	lw	s0,24(s0)
 244:	00400023          	sb	tp,0(zero) # 0 <_prog_start-0x40002000>
 248:	0000                	unimp
 24a:	0000                	unimp
 24c:	5406                	lw	s0,96(sp)
 24e:	00400023          	sb	tp,0(zero) # 0 <_prog_start-0x40002000>
 252:	0000                	unimp
 254:	a000                	fsd	fs0,0(s0)
 256:	0024                	addi	s1,sp,8
 258:	0040                	addi	s0,sp,4
 25a:	0000                	unimp
 25c:	0600                	addi	s0,sp,768
 25e:	24b2                	fld	fs1,264(sp)
 260:	4000                	lw	s0,0(s0)
 262:	0000                	unimp
 264:	0000                	unimp
 266:	24d8                	fld	fa4,136(s1)
 268:	4000                	lw	s0,0(s0)
 26a:	0000                	unimp
 26c:	0000                	unimp
 26e:	0600                	addi	s0,sp,768
 270:	238c                	fld	fa1,0(a5)
 272:	4000                	lw	s0,0(s0)
 274:	0000                	unimp
 276:	0000                	unimp
 278:	238e                	fld	ft7,192(sp)
 27a:	4000                	lw	s0,0(s0)
 27c:	0000                	unimp
 27e:	0000                	unimp
 280:	9206                	add	tp,tp,ra
 282:	00400023          	sb	tp,0(zero) # 0 <_prog_start-0x40002000>
 286:	0000                	unimp
 288:	a800                	fsd	fs0,16(s0)
 28a:	00400023          	sb	tp,0(zero) # 0 <_prog_start-0x40002000>
 28e:	0000                	unimp
 290:	0600                	addi	s0,sp,768
 292:	23aa                	fld	ft7,136(sp)
 294:	4000                	lw	s0,0(s0)
 296:	0000                	unimp
 298:	0000                	unimp
 29a:	2458                	fld	fa4,136(s0)
 29c:	4000                	lw	s0,0(s0)
 29e:	0000                	unimp
 2a0:	0000                	unimp
 2a2:	b206                	fsd	ft1,288(sp)
 2a4:	0024                	addi	s1,sp,8
 2a6:	0040                	addi	s0,sp,4
 2a8:	0000                	unimp
 2aa:	c200                	sw	s0,0(a2)
 2ac:	0024                	addi	s1,sp,8
 2ae:	0040                	addi	s0,sp,4
 2b0:	0000                	unimp
 2b2:	0000                	unimp
 2b4:	8c06                	mv	s8,ra
 2b6:	00400023          	sb	tp,0(zero) # 0 <_prog_start-0x40002000>
 2ba:	0000                	unimp
 2bc:	8e00                	.2byte	0x8e00
 2be:	00400023          	sb	tp,0(zero) # 0 <_prog_start-0x40002000>
 2c2:	0000                	unimp
 2c4:	0600                	addi	s0,sp,768
 2c6:	23a6                	fld	ft7,72(sp)
 2c8:	4000                	lw	s0,0(s0)
 2ca:	0000                	unimp
 2cc:	0000                	unimp
 2ce:	23a8                	fld	fa0,64(a5)
 2d0:	4000                	lw	s0,0(s0)
 2d2:	0000                	unimp
 2d4:	0000                	unimp
 2d6:	ca06                	sw	ra,20(sp)
 2d8:	00400023          	sb	tp,0(zero) # 0 <_prog_start-0x40002000>
 2dc:	0000                	unimp
 2de:	ce00                	sw	s0,24(a2)
 2e0:	00400023          	sb	tp,0(zero) # 0 <_prog_start-0x40002000>
 2e4:	0000                	unimp
 2e6:	0600                	addi	s0,sp,768
 2e8:	23ce                	fld	ft7,208(sp)
 2ea:	4000                	lw	s0,0(s0)
 2ec:	0000                	unimp
 2ee:	0000                	unimp
 2f0:	241e                	fld	fs0,448(sp)
 2f2:	4000                	lw	s0,0(s0)
 2f4:	0000                	unimp
 2f6:	0000                	unimp
 2f8:	2206                	fld	ft4,64(sp)
 2fa:	0024                	addi	s1,sp,8
 2fc:	0040                	addi	s0,sp,4
 2fe:	0000                	unimp
 300:	2600                	fld	fs0,8(a2)
 302:	0024                	addi	s1,sp,8
 304:	0040                	addi	s0,sp,4
 306:	0000                	unimp
 308:	0000                	unimp
 30a:	8c06                	mv	s8,ra
 30c:	00400023          	sb	tp,0(zero) # 0 <_prog_start-0x40002000>
 310:	0000                	unimp
 312:	8e00                	.2byte	0x8e00
 314:	00400023          	sb	tp,0(zero) # 0 <_prog_start-0x40002000>
 318:	0000                	unimp
 31a:	0600                	addi	s0,sp,768
 31c:	23a6                	fld	ft7,72(sp)
 31e:	4000                	lw	s0,0(s0)
 320:	0000                	unimp
 322:	0000                	unimp
 324:	23a8                	fld	fa0,64(a5)
 326:	4000                	lw	s0,0(s0)
 328:	0000                	unimp
 32a:	0000                	unimp
 32c:	ee06                	sd	ra,280(sp)
 32e:	00400023          	sb	tp,0(zero) # 0 <_prog_start-0x40002000>
 332:	0000                	unimp
 334:	1400                	addi	s0,sp,544
 336:	0024                	addi	s1,sp,8
 338:	0040                	addi	s0,sp,4
 33a:	0000                	unimp
 33c:	0600                	addi	s0,sp,768
 33e:	241c                	fld	fa5,8(s0)
 340:	4000                	lw	s0,0(s0)
 342:	0000                	unimp
 344:	0000                	unimp
 346:	241e                	fld	fs0,448(sp)
 348:	4000                	lw	s0,0(s0)
 34a:	0000                	unimp
 34c:	0000                	unimp
 34e:	0600                	addi	s0,sp,768
 350:	23ca                	fld	ft7,144(sp)
 352:	4000                	lw	s0,0(s0)
 354:	0000                	unimp
 356:	0000                	unimp
 358:	23ce                	fld	ft7,208(sp)
 35a:	4000                	lw	s0,0(s0)
 35c:	0000                	unimp
 35e:	0000                	unimp
 360:	ce06                	sw	ra,28(sp)
 362:	00400023          	sb	tp,0(zero) # 0 <_prog_start-0x40002000>
 366:	0000                	unimp
 368:	ec00                	sd	s0,24(s0)
 36a:	00400023          	sb	tp,0(zero) # 0 <_prog_start-0x40002000>
 36e:	0000                	unimp
 370:	0000                	unimp
 372:	9206                	add	tp,tp,ra
 374:	00400023          	sb	tp,0(zero) # 0 <_prog_start-0x40002000>
 378:	0000                	unimp
 37a:	9e00                	.2byte	0x9e00
 37c:	00400023          	sb	tp,0(zero) # 0 <_prog_start-0x40002000>
 380:	0000                	unimp
 382:	0600                	addi	s0,sp,768
 384:	23a2                	fld	ft7,8(sp)
 386:	4000                	lw	s0,0(s0)
 388:	0000                	unimp
 38a:	0000                	unimp
 38c:	23a6                	fld	ft7,72(sp)
 38e:	4000                	lw	s0,0(s0)
 390:	0000                	unimp
 392:	0000                	unimp
 394:	aa06                	fsd	ft1,272(sp)
 396:	00400023          	sb	tp,0(zero) # 0 <_prog_start-0x40002000>
 39a:	0000                	unimp
 39c:	ae00                	fsd	fs0,24(a2)
 39e:	00400023          	sb	tp,0(zero) # 0 <_prog_start-0x40002000>
 3a2:	0000                	unimp
 3a4:	0600                	addi	s0,sp,768
 3a6:	23ae                	fld	ft7,200(sp)
 3a8:	4000                	lw	s0,0(s0)
 3aa:	0000                	unimp
 3ac:	0000                	unimp
 3ae:	23ba                	fld	ft7,392(sp)
 3b0:	4000                	lw	s0,0(s0)
 3b2:	0000                	unimp
 3b4:	0000                	unimp
 3b6:	0600                	addi	s0,sp,768
 3b8:	2038                	fld	fa4,64(s0)
 3ba:	4000                	lw	s0,0(s0)
 3bc:	0000                	unimp
 3be:	0000                	unimp
 3c0:	20fa                	fld	ft1,408(sp)
 3c2:	4000                	lw	s0,0(s0)
 3c4:	0000                	unimp
 3c6:	0000                	unimp
 3c8:	fa06                	sd	ra,304(sp)
 3ca:	0020                	addi	s0,sp,8
 3cc:	0040                	addi	s0,sp,4
 3ce:	0000                	unimp
 3d0:	d800                	sw	s0,48(s0)
 3d2:	0024                	addi	s1,sp,8
 3d4:	0040                	addi	s0,sp,4
 3d6:	0000                	unimp
 3d8:	0000                	unimp
 3da:	000000eb          	.4byte	0xeb
 3de:	0005                	c.nop	1
 3e0:	0008                	.2byte	0x8
 3e2:	0000                	unimp
 3e4:	0000                	unimp
 3e6:	4006                	.2byte	0x4006
 3e8:	0025                	c.nop	9
 3ea:	0040                	addi	s0,sp,4
 3ec:	0000                	unimp
 3ee:	4400                	lw	s0,8(s0)
 3f0:	0025                	c.nop	9
 3f2:	0040                	addi	s0,sp,4
 3f4:	0000                	unimp
 3f6:	0600                	addi	s0,sp,768
 3f8:	2602                	fld	fa2,0(sp)
 3fa:	4000                	lw	s0,0(s0)
 3fc:	0000                	unimp
 3fe:	0000                	unimp
 400:	2618                	fld	fa4,8(a2)
 402:	4000                	lw	s0,0(s0)
 404:	0000                	unimp
 406:	0000                	unimp
 408:	0600                	addi	s0,sp,768
 40a:	256a                	fld	fa0,152(sp)
 40c:	4000                	lw	s0,0(s0)
 40e:	0000                	unimp
 410:	0000                	unimp
 412:	256e                	fld	fa0,216(sp)
 414:	4000                	lw	s0,0(s0)
 416:	0000                	unimp
 418:	0000                	unimp
 41a:	7206                	ld	tp,96(sp)
 41c:	0025                	c.nop	9
 41e:	0040                	addi	s0,sp,4
 420:	0000                	unimp
 422:	7200                	ld	s0,32(a2)
 424:	0025                	c.nop	9
 426:	0040                	addi	s0,sp,4
 428:	0000                	unimp
 42a:	0600                	addi	s0,sp,768
 42c:	2576                	fld	fa0,344(sp)
 42e:	4000                	lw	s0,0(s0)
 430:	0000                	unimp
 432:	0000                	unimp
 434:	2580                	fld	fs0,8(a1)
 436:	4000                	lw	s0,0(s0)
 438:	0000                	unimp
 43a:	0000                	unimp
 43c:	0600                	addi	s0,sp,768
 43e:	2594                	fld	fa3,8(a1)
 440:	4000                	lw	s0,0(s0)
 442:	0000                	unimp
 444:	0000                	unimp
 446:	25d4                	fld	fa3,136(a1)
 448:	4000                	lw	s0,0(s0)
 44a:	0000                	unimp
 44c:	0000                	unimp
 44e:	1806                	slli	a6,a6,0x21
 450:	0026                	c.slli	zero,0x9
 452:	0040                	addi	s0,sp,4
 454:	0000                	unimp
 456:	2800                	fld	fs0,16(s0)
 458:	0026                	c.slli	zero,0x9
 45a:	0040                	addi	s0,sp,4
 45c:	0000                	unimp
 45e:	0000                	unimp
 460:	a606                	fsd	ft1,264(sp)
 462:	0025                	c.nop	9
 464:	0040                	addi	s0,sp,4
 466:	0000                	unimp
 468:	ac00                	fsd	fs0,24(s0)
 46a:	0025                	c.nop	9
 46c:	0040                	addi	s0,sp,4
 46e:	0000                	unimp
 470:	0600                	addi	s0,sp,768
 472:	25ae                	fld	fa1,200(sp)
 474:	4000                	lw	s0,0(s0)
 476:	0000                	unimp
 478:	0000                	unimp
 47a:	25cc                	fld	fa1,136(a1)
 47c:	4000                	lw	s0,0(s0)
 47e:	0000                	unimp
 480:	0000                	unimp
 482:	0600                	addi	s0,sp,768
 484:	25a8                	fld	fa0,72(a1)
 486:	4000                	lw	s0,0(s0)
 488:	0000                	unimp
 48a:	0000                	unimp
 48c:	25ac                	fld	fa1,72(a1)
 48e:	4000                	lw	s0,0(s0)
 490:	0000                	unimp
 492:	0000                	unimp
 494:	c206                	sw	ra,4(sp)
 496:	0025                	c.nop	9
 498:	0040                	addi	s0,sp,4
 49a:	0000                	unimp
 49c:	cc00                	sw	s0,24(s0)
 49e:	0025                	c.nop	9
 4a0:	0040                	addi	s0,sp,4
 4a2:	0000                	unimp
 4a4:	0000                	unimp
 4a6:	d806                	sw	ra,48(sp)
 4a8:	0025                	c.nop	9
 4aa:	0040                	addi	s0,sp,4
 4ac:	0000                	unimp
 4ae:	d800                	sw	s0,48(s0)
 4b0:	0025                	c.nop	9
 4b2:	0040                	addi	s0,sp,4
 4b4:	0000                	unimp
 4b6:	0600                	addi	s0,sp,768
 4b8:	25dc                	fld	fa5,136(a1)
 4ba:	4000                	lw	s0,0(s0)
 4bc:	0000                	unimp
 4be:	0000                	unimp
 4c0:	25fa                	fld	fa1,408(sp)
 4c2:	4000                	lw	s0,0(s0)
 4c4:	0000                	unimp
 4c6:	0000                	unimp
	...

Disassembly of section .debug_frame:

0000000000000000 <.debug_frame>:
   0:	000c                	.2byte	0xc
   2:	0000                	unimp
   4:	ffff                	.2byte	0xffff
   6:	ffff                	.2byte	0xffff
   8:	7c010003          	lb	zero,1984(sp)
   c:	0d01                	addi	s10,s10,0 # 1d000 <_prog_start-0x3ffe5000>
   e:	0002                	c.slli64	zero
  10:	0024                	addi	s1,sp,8
  12:	0000                	unimp
  14:	0000                	unimp
  16:	0000                	unimp
  18:	2038                	fld	fa4,64(s0)
  1a:	4000                	lw	s0,0(s0)
  1c:	0000                	unimp
  1e:	0000                	unimp
  20:	00c2                	slli	ra,ra,0x10
  22:	0000                	unimp
  24:	0000                	unimp
  26:	0000                	unimp
  28:	0e42                	slli	t3,t3,0x10
  2a:	4410                	lw	a2,8(s0)
  2c:	0281                	addi	t0,t0,0
  2e:	0488                	addi	a0,sp,576
  30:	b202                	fsd	ft0,288(sp)
  32:	46c1                	li	a3,16
  34:	42c8                	lw	a0,4(a3)
  36:	000e                	c.slli	zero,0x3
  38:	0034                	addi	a3,sp,8
  3a:	0000                	unimp
  3c:	0000                	unimp
  3e:	0000                	unimp
  40:	20fa                	fld	ft1,408(sp)
  42:	4000                	lw	s0,0(s0)
  44:	0000                	unimp
  46:	0000                	unimp
  48:	03de                	slli	t2,t2,0x17
  4a:	0000                	unimp
  4c:	0000                	unimp
  4e:	0000                	unimp
  50:	0e42                	slli	t3,t3,0x10
  52:	4a30                	lw	a2,80(a2)
  54:	0281                	addi	t0,t0,0
  56:	0488                	addi	a0,sp,576
  58:	0689                	addi	a3,a3,2
  5a:	0892                	slli	a7,a7,0x4
  5c:	0a580a93          	addi	s5,a6,165 # 1b0a5 <_prog_start-0x3ffe6f5b>
  60:	42c1                	li	t0,16
  62:	42c8                	lw	a0,4(a3)
  64:	42c9                	li	t0,18
  66:	42d2                	lw	t0,20(sp)
  68:	000e42d3          	fadd.s	ft5,ft8,ft0,rmm
  6c:	0b42                	slli	s6,s6,0x10
  6e:	0000                	unimp
  70:	000c                	.2byte	0xc
  72:	0000                	unimp
  74:	ffff                	.2byte	0xffff
  76:	ffff                	.2byte	0xffff
  78:	7c010003          	lb	zero,1984(sp)
  7c:	0d01                	addi	s10,s10,0
  7e:	0002                	c.slli64	zero
  80:	0014                	.2byte	0x14
  82:	0000                	unimp
  84:	0070                	addi	a2,sp,12
  86:	0000                	unimp
  88:	24d8                	fld	fa4,136(s1)
  8a:	4000                	lw	s0,0(s0)
  8c:	0000                	unimp
  8e:	0000                	unimp
  90:	003e                	c.slli	zero,0xf
  92:	0000                	unimp
  94:	0000                	unimp
  96:	0000                	unimp
  98:	0024                	addi	s1,sp,8
  9a:	0000                	unimp
  9c:	0070                	addi	a2,sp,12
  9e:	0000                	unimp
  a0:	2516                	fld	fa0,320(sp)
  a2:	4000                	lw	s0,0(s0)
  a4:	0000                	unimp
  a6:	0000                	unimp
  a8:	011a                	slli	sp,sp,0x6
  aa:	0000                	unimp
  ac:	0000                	unimp
  ae:	0000                	unimp
  b0:	0e42                	slli	t3,t3,0x10
  b2:	0250                	addi	a2,sp,260
  b4:	0a7a                	slli	s4,s4,0x1e
  b6:	000e                	c.slli	zero,0x3
  b8:	0b42                	slli	s6,s6,0x10
  ba:	0000                	unimp
  bc:	0000                	unimp
	...
