
/home/binhkieudo/Workspace/tmp/HCMUSTProject/framework/src/main/resources/bootROM/MTBoot//build/sdboot.elf:     file format elf64-littleriscv


Disassembly of section .text:

0000000040002000 <_prog_start>:

  .section .text.init
  .option norvc
  .globl _prog_start
_prog_start:
  li s2, 0x8
    40002000:	00800913          	li	s2,8
  csrw mie, s2
    40002004:	30491073          	csrw	mie,s2
  csrr a0, mhartid
    40002008:	f1402573          	csrr	a0,mhartid
  li sp, (MEMORY_MEM_ADDR + 0xFF0)
    4000200c:	00080137          	lui	sp,0x80
    40002010:	0011011b          	addiw	sp,sp,1 # 80001 <_prog_start-0x3ff81fff>
    40002014:	00c11113          	slli	sp,sp,0xc
    40002018:	ff010113          	addi	sp,sp,-16
  call main
    4000201c:	0de000ef          	jal	ra,400020fa <main>
  la a1, dtb // dtb address for next level bootloader
    40002020:	00000597          	auipc	a1,0x0
    40002024:	74858593          	addi	a1,a1,1864 # 40002768 <dtb>
  li s1, MEMORY_MEM_ADDR
    40002028:	0010049b          	addiw	s1,zero,1
    4000202c:	01f49493          	slli	s1,s1,0x1f
  jr s1
    40002030:	00048067          	jr	s1
  j _prog_start
    40002034:	fcdff06f          	j	40002000 <_prog_start>

0000000040002038 <sd_cmd>:
{
	return spi_xfer(0xFF);
}

static uint8_t sd_cmd(uint8_t cmd, uint32_t arg, uint8_t crc)
{
    40002038:	1141                	addi	sp,sp,-16
    4000203a:	e406                	sd	ra,8(sp)
    4000203c:	e022                	sd	s0,0(sp)
	unsigned long n;
	uint8_t r;

	REG32(spi, SPI_REG_CSMODE) = SPI_CSMODE_HOLD;
    4000203e:	640027b7          	lui	a5,0x64002
    40002042:	4709                	li	a4,2
    40002044:	cf98                	sw	a4,24(a5)
	REG32(spi, SPI_REG_TXFIFO) = d;
    40002046:	0ff00713          	li	a4,255
    4000204a:	c7b8                	sw	a4,72(a5)
		r = REG32(spi, SPI_REG_RXFIFO);
    4000204c:	64002737          	lui	a4,0x64002
    40002050:	477c                	lw	a5,76(a4)
	} while (r < 0);
    40002052:	fe07cfe3          	bltz	a5,40002050 <sd_cmd+0x18>
	REG32(spi, SPI_REG_TXFIFO) = d;
    40002056:	2501                	sext.w	a0,a0
    40002058:	c728                	sw	a0,72(a4)
		r = REG32(spi, SPI_REG_RXFIFO);
    4000205a:	64002737          	lui	a4,0x64002
    4000205e:	477c                	lw	a5,76(a4)
	} while (r < 0);
    40002060:	fe07cfe3          	bltz	a5,4000205e <sd_cmd+0x26>
	sd_dummy();
	spi_xfer(cmd);
	spi_xfer(arg >> 24);
    40002064:	0185d79b          	srliw	a5,a1,0x18
	REG32(spi, SPI_REG_TXFIFO) = d;
    40002068:	c73c                	sw	a5,72(a4)
		r = REG32(spi, SPI_REG_RXFIFO);
    4000206a:	64002737          	lui	a4,0x64002
    4000206e:	477c                	lw	a5,76(a4)
	} while (r < 0);
    40002070:	fe07cfe3          	bltz	a5,4000206e <sd_cmd+0x36>
	REG32(spi, SPI_REG_TXFIFO) = d;
    40002074:	04072423          	sw	zero,72(a4) # 64002048 <dtb+0x23fff8e0>
		r = REG32(spi, SPI_REG_RXFIFO);
    40002078:	64002737          	lui	a4,0x64002
    4000207c:	477c                	lw	a5,76(a4)
	} while (r < 0);
    4000207e:	fe07cfe3          	bltz	a5,4000207c <sd_cmd+0x44>
	spi_xfer(arg >> 16);
	spi_xfer(arg >> 8);
    40002082:	0085d79b          	srliw	a5,a1,0x8
    40002086:	0ff7f793          	zext.b	a5,a5
	REG32(spi, SPI_REG_TXFIFO) = d;
    4000208a:	c73c                	sw	a5,72(a4)
		r = REG32(spi, SPI_REG_RXFIFO);
    4000208c:	64002737          	lui	a4,0x64002
    40002090:	477c                	lw	a5,76(a4)
	} while (r < 0);
    40002092:	fe07cfe3          	bltz	a5,40002090 <sd_cmd+0x58>
	REG32(spi, SPI_REG_TXFIFO) = d;
    40002096:	0ff5f593          	zext.b	a1,a1
    4000209a:	c72c                	sw	a1,72(a4)
		r = REG32(spi, SPI_REG_RXFIFO);
    4000209c:	64002737          	lui	a4,0x64002
    400020a0:	477c                	lw	a5,76(a4)
	} while (r < 0);
    400020a2:	fe07cfe3          	bltz	a5,400020a0 <sd_cmd+0x68>
	REG32(spi, SPI_REG_TXFIFO) = d;
    400020a6:	0006079b          	sext.w	a5,a2
    400020aa:	c73c                	sw	a5,72(a4)
		r = REG32(spi, SPI_REG_RXFIFO);
    400020ac:	64002737          	lui	a4,0x64002
    400020b0:	477c                	lw	a5,76(a4)
	} while (r < 0);
    400020b2:	fe07cfe3          	bltz	a5,400020b0 <sd_cmd+0x78>
	REG32(spi, SPI_REG_TXFIFO) = d;
    400020b6:	64002737          	lui	a4,0x64002
    400020ba:	3e800693          	li	a3,1000
    400020be:	04870593          	addi	a1,a4,72 # 64002048 <dtb+0x23fff8e0>
    400020c2:	0ff00613          	li	a2,255
    400020c6:	c190                	sw	a2,0(a1)
		r = REG32(spi, SPI_REG_RXFIFO);
    400020c8:	477c                	lw	a5,76(a4)
    400020ca:	0007841b          	sext.w	s0,a5
	} while (r < 0);
    400020ce:	fe07cde3          	bltz	a5,400020c8 <sd_cmd+0x90>
	spi_xfer(crc);

	n = 1000;
	do {
		r = sd_dummy();
		if (!(r & 0x80)) {
    400020d2:	0184179b          	slliw	a5,s0,0x18
    400020d6:	4187d79b          	sraiw	a5,a5,0x18
    400020da:	0007da63          	bgez	a5,400020ee <sd_cmd+0xb6>
//			dprintf("sd:cmd: %hx\r\n", r);
			goto done;
		}
	} while (--n > 0);
    400020de:	16fd                	addi	a3,a3,-1
    400020e0:	f2fd                	bnez	a3,400020c6 <sd_cmd+0x8e>
	kputs("sd_cmd: timeout");
    400020e2:	00000517          	auipc	a0,0x0
    400020e6:	58e50513          	addi	a0,a0,1422 # 40002670 <kprintf+0x15a>
    400020ea:	3ee000ef          	jal	ra,400024d8 <kputs>
done:
	return r;
}
    400020ee:	60a2                	ld	ra,8(sp)
    400020f0:	0ff47513          	zext.b	a0,s0
    400020f4:	6402                	ld	s0,0(sp)
    400020f6:	0141                	addi	sp,sp,16
    400020f8:	8082                	ret

00000000400020fa <main>:
	kputs("\b ");
	return rc;
}

int main(int argc, char** dump)
{
    400020fa:	7179                	addi	sp,sp,-48
    400020fc:	f406                	sd	ra,40(sp)
    400020fe:	f022                	sd	s0,32(sp)
    40002100:	ec26                	sd	s1,24(sp)
    40002102:	e84a                	sd	s2,16(sp)
    40002104:	e44e                	sd	s3,8(sp)
	REG32(uart, UART_REG_TXCTRL) = UART_TXEN;
    40002106:	640007b7          	lui	a5,0x64000
    4000210a:	4705                	li	a4,1
    4000210c:	c798                	sw	a4,8(a5)

	int mhartid = read_csr(mhartid);
    4000210e:	f1402473          	csrr	s0,mhartid
    40002112:	2401                	sext.w	s0,s0

	if (mhartid == 0) {
    40002114:	c819                	beqz	s0,4000212a <main+0x30>
	 		return 1;
	 	}
	 	kputs("FINISH");
	 }

	__asm__ __volatile__ ("fence.i" : : : "memory");
    40002116:	0000100f          	fence.i

	return 0;
    4000211a:	4501                	li	a0,0
}
    4000211c:	70a2                	ld	ra,40(sp)
    4000211e:	7402                	ld	s0,32(sp)
    40002120:	64e2                	ld	s1,24(sp)
    40002122:	6942                	ld	s2,16(sp)
    40002124:	69a2                	ld	s3,8(sp)
    40002126:	6145                	addi	sp,sp,48
    40002128:	8082                	ret
		kputs("");
    4000212a:	00000517          	auipc	a0,0x0
    4000212e:	5c650513          	addi	a0,a0,1478 # 400026f0 <kprintf+0x1da>
    40002132:	3a6000ef          	jal	ra,400024d8 <kputs>
		kputs("Core 0: ZERO STAGE BOOT..");
    40002136:	00000517          	auipc	a0,0x0
    4000213a:	54a50513          	addi	a0,a0,1354 # 40002680 <kprintf+0x16a>
    4000213e:	39a000ef          	jal	ra,400024d8 <kputs>
	REG32(spi, SPI_REG_SCKDIV) = (F_CLK / FDIV);
    40002142:	640027b7          	lui	a5,0x64002
	REG32(spi, SPI_REG_CSMODE) = SPI_CSMODE_OFF;
    40002146:	470d                	li	a4,3
	REG32(spi, SPI_REG_SCKDIV) = (F_CLK / FDIV);
    40002148:	0007a023          	sw	zero,0(a5) # 64002000 <dtb+0x23fff898>
	REG32(spi, SPI_REG_TXFIFO) = d;
    4000214c:	640024b7          	lui	s1,0x64002
	REG32(spi, SPI_REG_CSMODE) = SPI_CSMODE_OFF;
    40002150:	cf98                	sw	a4,24(a5)
	REG32(spi, SPI_REG_TXFIFO) = d;
    40002152:	04848613          	addi	a2,s1,72 # 64002048 <dtb+0x23fff8e0>
	REG32(spi, SPI_REG_CSMODE) = SPI_CSMODE_OFF;
    40002156:	4729                	li	a4,10
	REG32(spi, SPI_REG_TXFIFO) = d;
    40002158:	0ff00693          	li	a3,255
    4000215c:	c214                	sw	a3,0(a2)
		r = REG32(spi, SPI_REG_RXFIFO);
    4000215e:	44fc                	lw	a5,76(s1)
	} while (r < 0);
    40002160:	fe07cfe3          	bltz	a5,4000215e <main+0x64>
	for (i = 10; i > 0; i--) {
    40002164:	177d                	addi	a4,a4,-1
    40002166:	fb7d                	bnez	a4,4000215c <main+0x62>
	dputs("CMD0");
    40002168:	00000517          	auipc	a0,0x0
    4000216c:	53850513          	addi	a0,a0,1336 # 400026a0 <kprintf+0x18a>
	REG32(spi, SPI_REG_CSMODE) = SPI_CSMODE_AUTO;
    40002170:	0004ac23          	sw	zero,24(s1)
	dputs("CMD0");
    40002174:	364000ef          	jal	ra,400024d8 <kputs>
	rc = (sd_cmd(0x40, 0, 0x95) != 0x01);
    40002178:	09500613          	li	a2,149
    4000217c:	4581                	li	a1,0
    4000217e:	04000513          	li	a0,64
    40002182:	eb7ff0ef          	jal	ra,40002038 <sd_cmd>
	REG32(spi, SPI_REG_TXFIFO) = d;
    40002186:	0ff00793          	li	a5,255
    4000218a:	c4bc                	sw	a5,72(s1)
		r = REG32(spi, SPI_REG_RXFIFO);
    4000218c:	640024b7          	lui	s1,0x64002
    40002190:	44fc                	lw	a5,76(s1)
	} while (r < 0);
    40002192:	fe07cfe3          	bltz	a5,40002190 <main+0x96>
	REG32(spi, SPI_REG_CSMODE) = SPI_CSMODE_AUTO;
    40002196:	0004ac23          	sw	zero,24(s1) # 64002018 <dtb+0x23fff8b0>
	 	if (sd_cmd0() ||
    4000219a:	4785                	li	a5,1
    4000219c:	0af51463          	bne	a0,a5,40002244 <main+0x14a>
	dputs("CMD8");
    400021a0:	00000517          	auipc	a0,0x0
    400021a4:	50850513          	addi	a0,a0,1288 # 400026a8 <kprintf+0x192>
    400021a8:	330000ef          	jal	ra,400024d8 <kputs>
	rc = (sd_cmd(0x48, 0x000001AA, 0x87) != 0x01);
    400021ac:	08700613          	li	a2,135
    400021b0:	1aa00593          	li	a1,426
    400021b4:	04800513          	li	a0,72
    400021b8:	e81ff0ef          	jal	ra,40002038 <sd_cmd>
    400021bc:	0005071b          	sext.w	a4,a0
    400021c0:	177d                	addi	a4,a4,-1
	REG32(spi, SPI_REG_TXFIFO) = d;
    400021c2:	0ff00793          	li	a5,255
	rc = (sd_cmd(0x48, 0x000001AA, 0x87) != 0x01);
    400021c6:	00e03633          	snez	a2,a4
	REG32(spi, SPI_REG_TXFIFO) = d;
    400021ca:	c4bc                	sw	a5,72(s1)
		r = REG32(spi, SPI_REG_RXFIFO);
    400021cc:	64002737          	lui	a4,0x64002
    400021d0:	477c                	lw	a5,76(a4)
	} while (r < 0);
    400021d2:	fe07cfe3          	bltz	a5,400021d0 <main+0xd6>
	REG32(spi, SPI_REG_TXFIFO) = d;
    400021d6:	0ff00793          	li	a5,255
    400021da:	c73c                	sw	a5,72(a4)
		r = REG32(spi, SPI_REG_RXFIFO);
    400021dc:	64002737          	lui	a4,0x64002
    400021e0:	477c                	lw	a5,76(a4)
	} while (r < 0);
    400021e2:	fe07cfe3          	bltz	a5,400021e0 <main+0xe6>
	REG32(spi, SPI_REG_TXFIFO) = d;
    400021e6:	0ff00793          	li	a5,255
    400021ea:	c73c                	sw	a5,72(a4)
		r = REG32(spi, SPI_REG_RXFIFO);
    400021ec:	640026b7          	lui	a3,0x64002
    400021f0:	46fc                	lw	a5,76(a3)
    400021f2:	0007871b          	sext.w	a4,a5
	} while (r < 0);
    400021f6:	fe07cde3          	bltz	a5,400021f0 <main+0xf6>
	rc |= ((sd_dummy() & 0xF) != 0x1); /* voltage */
    400021fa:	8b3d                	andi	a4,a4,15
    400021fc:	fff70793          	addi	a5,a4,-1 # 64001fff <dtb+0x23fff897>
    40002200:	00f03733          	snez	a4,a5
	REG32(spi, SPI_REG_TXFIFO) = d;
    40002204:	0ff00793          	li	a5,255
    40002208:	c6bc                	sw	a5,72(a3)
		r = REG32(spi, SPI_REG_RXFIFO);
    4000220a:	640025b7          	lui	a1,0x64002
    4000220e:	45fc                	lw	a5,76(a1)
    40002210:	0007869b          	sext.w	a3,a5
	} while (r < 0);
    40002214:	fe07cde3          	bltz	a5,4000220e <main+0x114>
	rc |= (sd_dummy() != 0xAA); /* check pattern */
    40002218:	0ff6f793          	zext.b	a5,a3
    4000221c:	f5678793          	addi	a5,a5,-170
    40002220:	00f037b3          	snez	a5,a5
    40002224:	8fd9                	or	a5,a5,a4
    40002226:	00f66733          	or	a4,a2,a5
	REG32(spi, SPI_REG_TXFIFO) = d;
    4000222a:	0ff00793          	li	a5,255
    4000222e:	0ff77713          	zext.b	a4,a4
    40002232:	c5bc                	sw	a5,72(a1)
		r = REG32(spi, SPI_REG_RXFIFO);
    40002234:	640026b7          	lui	a3,0x64002
    40002238:	46fc                	lw	a5,76(a3)
	} while (r < 0);
    4000223a:	fe07cfe3          	bltz	a5,40002238 <main+0x13e>
	REG32(spi, SPI_REG_CSMODE) = SPI_CSMODE_AUTO;
    4000223e:	0006ac23          	sw	zero,24(a3) # 64002018 <dtb+0x23fff8b0>
	 	if (sd_cmd0() ||
    40002242:	cb09                	beqz	a4,40002254 <main+0x15a>
	 		kputs("ERROR");
    40002244:	00000517          	auipc	a0,0x0
    40002248:	4bc50513          	addi	a0,a0,1212 # 40002700 <kprintf+0x1ea>
    4000224c:	28c000ef          	jal	ra,400024d8 <kputs>
	 		return 1;
    40002250:	4505                	li	a0,1
    40002252:	b5e9                	j	4000211c <main+0x22>
	dputs("ACMD41");
    40002254:	00000517          	auipc	a0,0x0
    40002258:	45c50513          	addi	a0,a0,1116 # 400026b0 <kprintf+0x19a>
    4000225c:	27c000ef          	jal	ra,400024d8 <kputs>
	REG32(spi, SPI_REG_TXFIFO) = d;
    40002260:	640024b7          	lui	s1,0x64002
    40002264:	0ff00993          	li	s3,255
	} while (r == 0x01);
    40002268:	4905                	li	s2,1
	sd_cmd(0x77, 0, 0x65);
    4000226a:	06500613          	li	a2,101
    4000226e:	4581                	li	a1,0
    40002270:	07700513          	li	a0,119
    40002274:	dc5ff0ef          	jal	ra,40002038 <sd_cmd>
	REG32(spi, SPI_REG_TXFIFO) = d;
    40002278:	0534a423          	sw	s3,72(s1) # 64002048 <dtb+0x23fff8e0>
		r = REG32(spi, SPI_REG_RXFIFO);
    4000227c:	44fc                	lw	a5,76(s1)
	} while (r < 0);
    4000227e:	fe07cfe3          	bltz	a5,4000227c <main+0x182>
	REG32(spi, SPI_REG_CSMODE) = SPI_CSMODE_AUTO;
    40002282:	0004ac23          	sw	zero,24(s1)
		r = sd_cmd(0x69, 0x40000000, 0x77); /* HCS = 1 */
    40002286:	07700613          	li	a2,119
    4000228a:	400005b7          	lui	a1,0x40000
    4000228e:	06900513          	li	a0,105
    40002292:	da7ff0ef          	jal	ra,40002038 <sd_cmd>
	} while (r == 0x01);
    40002296:	fd250ae3          	beq	a0,s2,4000226a <main+0x170>
	 		sd_cmd8() ||
    4000229a:	f54d                	bnez	a0,40002244 <main+0x14a>
	dputs("CMD58");
    4000229c:	00000517          	auipc	a0,0x0
    400022a0:	41c50513          	addi	a0,a0,1052 # 400026b8 <kprintf+0x1a2>
    400022a4:	234000ef          	jal	ra,400024d8 <kputs>
	rc = (sd_cmd(0x7A, 0, 0xFD) != 0x00);
    400022a8:	0fd00613          	li	a2,253
    400022ac:	4581                	li	a1,0
    400022ae:	07a00513          	li	a0,122
    400022b2:	d87ff0ef          	jal	ra,40002038 <sd_cmd>
	REG32(spi, SPI_REG_TXFIFO) = d;
    400022b6:	0ff00793          	li	a5,255
	rc = (sd_cmd(0x7A, 0, 0xFD) != 0x00);
    400022ba:	00a03633          	snez	a2,a0
	REG32(spi, SPI_REG_TXFIFO) = d;
    400022be:	c4bc                	sw	a5,72(s1)
		r = REG32(spi, SPI_REG_RXFIFO);
    400022c0:	640026b7          	lui	a3,0x64002
    400022c4:	46fc                	lw	a5,76(a3)
    400022c6:	0007871b          	sext.w	a4,a5
	} while (r < 0);
    400022ca:	fe07cde3          	bltz	a5,400022c4 <main+0x1ca>
	rc |= ((sd_dummy() & 0x80) != 0x80); /* Power up status */
    400022ce:	4077579b          	sraiw	a5,a4,0x7
    400022d2:	0017c793          	xori	a5,a5,1
    400022d6:	8b85                	andi	a5,a5,1
    400022d8:	8e5d                	or	a2,a2,a5
	REG32(spi, SPI_REG_TXFIFO) = d;
    400022da:	0ff00793          	li	a5,255
    400022de:	c6bc                	sw	a5,72(a3)
		r = REG32(spi, SPI_REG_RXFIFO);
    400022e0:	64002737          	lui	a4,0x64002
    400022e4:	477c                	lw	a5,76(a4)
	} while (r < 0);
    400022e6:	fe07cfe3          	bltz	a5,400022e4 <main+0x1ea>
	REG32(spi, SPI_REG_TXFIFO) = d;
    400022ea:	0ff00793          	li	a5,255
    400022ee:	c73c                	sw	a5,72(a4)
		r = REG32(spi, SPI_REG_RXFIFO);
    400022f0:	64002737          	lui	a4,0x64002
    400022f4:	477c                	lw	a5,76(a4)
	} while (r < 0);
    400022f6:	fe07cfe3          	bltz	a5,400022f4 <main+0x1fa>
	REG32(spi, SPI_REG_TXFIFO) = d;
    400022fa:	0ff00793          	li	a5,255
    400022fe:	c73c                	sw	a5,72(a4)
		r = REG32(spi, SPI_REG_RXFIFO);
    40002300:	64002737          	lui	a4,0x64002
    40002304:	477c                	lw	a5,76(a4)
	} while (r < 0);
    40002306:	fe07cfe3          	bltz	a5,40002304 <main+0x20a>
	REG32(spi, SPI_REG_TXFIFO) = d;
    4000230a:	0ff00793          	li	a5,255
    4000230e:	c73c                	sw	a5,72(a4)
		r = REG32(spi, SPI_REG_RXFIFO);
    40002310:	640024b7          	lui	s1,0x64002
    40002314:	44fc                	lw	a5,76(s1)
	} while (r < 0);
    40002316:	fe07cfe3          	bltz	a5,40002314 <main+0x21a>
	REG32(spi, SPI_REG_CSMODE) = SPI_CSMODE_AUTO;
    4000231a:	0004ac23          	sw	zero,24(s1) # 64002018 <dtb+0x23fff8b0>
	 		sd_acmd41() ||
    4000231e:	f21d                	bnez	a2,40002244 <main+0x14a>
	dputs("CMD16");
    40002320:	00000517          	auipc	a0,0x0
    40002324:	3a050513          	addi	a0,a0,928 # 400026c0 <kprintf+0x1aa>
    40002328:	1b0000ef          	jal	ra,400024d8 <kputs>
	rc = (sd_cmd(0x50, 0x200, 0x15) != 0x00);
    4000232c:	4655                	li	a2,21
    4000232e:	20000593          	li	a1,512
    40002332:	05000513          	li	a0,80
    40002336:	d03ff0ef          	jal	ra,40002038 <sd_cmd>
	REG32(spi, SPI_REG_TXFIFO) = d;
    4000233a:	0ff00793          	li	a5,255
    4000233e:	c4bc                	sw	a5,72(s1)
	rc = (sd_cmd(0x50, 0x200, 0x15) != 0x00);
    40002340:	872a                	mv	a4,a0
		r = REG32(spi, SPI_REG_RXFIFO);
    40002342:	640024b7          	lui	s1,0x64002
    40002346:	44fc                	lw	a5,76(s1)
	} while (r < 0);
    40002348:	fe07cfe3          	bltz	a5,40002346 <main+0x24c>
	REG32(spi, SPI_REG_CSMODE) = SPI_CSMODE_AUTO;
    4000234c:	0004ac23          	sw	zero,24(s1) # 64002018 <dtb+0x23fff8b0>
	 		sd_cmd58() ||
    40002350:	ee071ae3          	bnez	a4,40002244 <main+0x14a>
	dputs("CMD18");
    40002354:	00000517          	auipc	a0,0x0
    40002358:	37450513          	addi	a0,a0,884 # 400026c8 <kprintf+0x1b2>
    4000235c:	17c000ef          	jal	ra,400024d8 <kputs>
	kprintf("LOADING  ");
    40002360:	00000517          	auipc	a0,0x0
    40002364:	37050513          	addi	a0,a0,880 # 400026d0 <kprintf+0x1ba>
    40002368:	1ae000ef          	jal	ra,40002516 <kprintf>
	if (sd_cmd(0x52, BBL_PARTITION_START_SECTOR, 0x51) != 0x00) {
    4000236c:	6585                	lui	a1,0x1
	REG32(spi, SPI_REG_SCKDIV) = (F_CLK / FDIV);
    4000236e:	0004a023          	sw	zero,0(s1)
	if (sd_cmd(0x52, BBL_PARTITION_START_SECTOR, 0x51) != 0x00) {
    40002372:	05100613          	li	a2,81
    40002376:	80058593          	addi	a1,a1,-2048 # 800 <_prog_start-0x40001800>
    4000237a:	05200513          	li	a0,82
    4000237e:	cbbff0ef          	jal	ra,40002038 <sd_cmd>
    40002382:	14051063          	bnez	a0,400024c2 <main+0x3c8>
	} while (--i > 0);
    40002386:	00100eb7          	lui	t4,0x100
	volatile uint8_t *p = (void *)(PAYLOAD_DEST);
    4000238a:	4805                	li	a6,1
	crc ^= (crc & 0xff) << 5;
    4000238c:	6889                	lui	a7,0x2
	} while (--i > 0);
    4000238e:	0e85                	addi	t4,t4,1 # 100001 <_prog_start-0x3ff01fff>
	volatile uint8_t *p = (void *)(PAYLOAD_DEST);
    40002390:	087e                	slli	a6,a6,0x1f
	REG32(spi, SPI_REG_TXFIFO) = d;
    40002392:	640026b7          	lui	a3,0x64002
    40002396:	0ff00f13          	li	t5,255
    4000239a:	0ff00513          	li	a0,255
		while (sd_dummy() != 0xFE);
    4000239e:	0fe00e13          	li	t3,254
		r = REG32(spi, SPI_REG_RXFIFO);
    400023a2:	64002fb7          	lui	t6,0x64002
	crc ^= (crc & 0xff) << 5;
    400023a6:	1881                	addi	a7,a7,-32 # 1fe0 <_prog_start-0x40000020>
	} while (--i > 0);
    400023a8:	0eae                	slli	t4,t4,0xb
	REG32(spi, SPI_REG_TXFIFO) = d;
    400023aa:	04868613          	addi	a2,a3,72 # 64002048 <dtb+0x23fff8e0>
    400023ae:	c208                	sw	a0,0(a2)
		r = REG32(spi, SPI_REG_RXFIFO);
    400023b0:	46fc                	lw	a5,76(a3)
    400023b2:	0007871b          	sext.w	a4,a5
	} while (r < 0);
    400023b6:	fe07cde3          	bltz	a5,400023b0 <main+0x2b6>
		while (sd_dummy() != 0xFE);
    400023ba:	0ff77713          	zext.b	a4,a4
    400023be:	ffc718e3          	bne	a4,t3,400023ae <main+0x2b4>
    400023c2:	85c2                	mv	a1,a6
		crc = 0;
    400023c4:	4601                	li	a2,0
    400023c6:	20080813          	addi	a6,a6,512
	REG32(spi, SPI_REG_TXFIFO) = d;
    400023ca:	04868313          	addi	t1,a3,72
    400023ce:	00a32023          	sw	a0,0(t1)
		r = REG32(spi, SPI_REG_RXFIFO);
    400023d2:	46fc                	lw	a5,76(a3)
    400023d4:	0007871b          	sext.w	a4,a5
	} while (r < 0);
    400023d8:	fe07cde3          	bltz	a5,400023d2 <main+0x2d8>
	return r;
    400023dc:	0086179b          	slliw	a5,a2,0x8
    400023e0:	0086561b          	srliw	a2,a2,0x8
    400023e4:	8fd1                	or	a5,a5,a2
    400023e6:	17c2                	slli	a5,a5,0x30
    400023e8:	0ff77713          	zext.b	a4,a4
			*p++ = x;
    400023ec:	93c1                	srli	a5,a5,0x30
	crc ^= data;
    400023ee:	8fb9                	xor	a5,a5,a4
	crc ^= (uint8_t)(crc >> 4) & 0xf;
    400023f0:	0047d61b          	srliw	a2,a5,0x4
    400023f4:	8a3d                	andi	a2,a2,15
    400023f6:	8fb1                	xor	a5,a5,a2
	crc ^= crc << 12;
    400023f8:	00c7961b          	slliw	a2,a5,0xc
    400023fc:	8fb1                	xor	a5,a5,a2
	crc ^= (crc & 0xff) << 5;
    400023fe:	0107961b          	slliw	a2,a5,0x10
    40002402:	0106561b          	srliw	a2,a2,0x10
    40002406:	0056161b          	slliw	a2,a2,0x5
    4000240a:	00c8f633          	and	a2,a7,a2
    4000240e:	8fb1                	xor	a5,a5,a2
    40002410:	03079613          	slli	a2,a5,0x30
			*p++ = x;
    40002414:	00158293          	addi	t0,a1,1
    40002418:	00e58023          	sb	a4,0(a1)
	crc ^= (crc & 0xff) << 5;
    4000241c:	9241                	srli	a2,a2,0x30
		} while (--n > 0);
    4000241e:	01028463          	beq	t0,a6,40002426 <main+0x32c>
			*p++ = x;
    40002422:	8596                	mv	a1,t0
    40002424:	b76d                	j	400023ce <main+0x2d4>
	REG32(spi, SPI_REG_TXFIFO) = d;
    40002426:	05efa423          	sw	t5,72(t6) # 64002048 <dtb+0x23fff8e0>
		r = REG32(spi, SPI_REG_RXFIFO);
    4000242a:	46fc                	lw	a5,76(a3)
    4000242c:	0007871b          	sext.w	a4,a5
	} while (r < 0);
    40002430:	fe07cde3          	bltz	a5,4000242a <main+0x330>
		crc_exp = ((uint16_t)sd_dummy() << 8);
    40002434:	0ff77713          	zext.b	a4,a4
    40002438:	0087171b          	slliw	a4,a4,0x8
    4000243c:	1742                	slli	a4,a4,0x30
    4000243e:	9341                	srli	a4,a4,0x30
	REG32(spi, SPI_REG_TXFIFO) = d;
    40002440:	05e6a423          	sw	t5,72(a3)
		r = REG32(spi, SPI_REG_RXFIFO);
    40002444:	46fc                	lw	a5,76(a3)
    40002446:	0007859b          	sext.w	a1,a5
	} while (r < 0);
    4000244a:	fe07cde3          	bltz	a5,40002444 <main+0x34a>
		crc_exp |= sd_dummy();
    4000244e:	0ff5f793          	zext.b	a5,a1
		if (crc != crc_exp) {
    40002452:	8fd9                	or	a5,a5,a4
    40002454:	04c79f63          	bne	a5,a2,400024b2 <main+0x3b8>
	} while (--i > 0);
    40002458:	f5d299e3          	bne	t0,t4,400023aa <main+0x2b0>
	REG32(spi, SPI_REG_TXFIFO) = d;
    4000245c:	640027b7          	lui	a5,0x64002
    40002460:	0ff00713          	li	a4,255
    40002464:	c7b8                	sw	a4,72(a5)
		r = REG32(spi, SPI_REG_RXFIFO);
    40002466:	640024b7          	lui	s1,0x64002
    4000246a:	44fc                	lw	a5,76(s1)
	} while (r < 0);
    4000246c:	fe07cfe3          	bltz	a5,4000246a <main+0x370>
	REG32(spi, SPI_REG_CSMODE) = SPI_CSMODE_AUTO;
    40002470:	0004ac23          	sw	zero,24(s1) # 64002018 <dtb+0x23fff8b0>
	sd_cmd(0x4C, 0, 0x01);
    40002474:	4605                	li	a2,1
    40002476:	4581                	li	a1,0
    40002478:	04c00513          	li	a0,76
    4000247c:	bbdff0ef          	jal	ra,40002038 <sd_cmd>
	REG32(spi, SPI_REG_TXFIFO) = d;
    40002480:	0ff00793          	li	a5,255
    40002484:	c4bc                	sw	a5,72(s1)
		r = REG32(spi, SPI_REG_RXFIFO);
    40002486:	640027b7          	lui	a5,0x64002
    4000248a:	47f8                	lw	a4,76(a5)
	} while (r < 0);
    4000248c:	fe074fe3          	bltz	a4,4000248a <main+0x390>
	REG32(spi, SPI_REG_CSMODE) = SPI_CSMODE_AUTO;
    40002490:	0007ac23          	sw	zero,24(a5) # 64002018 <dtb+0x23fff8b0>
	kputs("\b ");
    40002494:	00000517          	auipc	a0,0x0
    40002498:	26450513          	addi	a0,a0,612 # 400026f8 <kprintf+0x1e2>
    4000249c:	03c000ef          	jal	ra,400024d8 <kputs>
	 		sd_cmd16() ||
    400024a0:	da0412e3          	bnez	s0,40002244 <main+0x14a>
	 	kputs("FINISH");
    400024a4:	00000517          	auipc	a0,0x0
    400024a8:	26450513          	addi	a0,a0,612 # 40002708 <kprintf+0x1f2>
    400024ac:	02c000ef          	jal	ra,400024d8 <kputs>
    400024b0:	b19d                	j	40002116 <main+0x1c>
			kputs("\b- CRC mismatch ");
    400024b2:	00000517          	auipc	a0,0x0
    400024b6:	22e50513          	addi	a0,a0,558 # 400026e0 <kprintf+0x1ca>
    400024ba:	01e000ef          	jal	ra,400024d8 <kputs>
			rc = 1;
    400024be:	4405                	li	s0,1
			break;
    400024c0:	bf71                	j	4000245c <main+0x362>
	REG32(spi, SPI_REG_TXFIFO) = d;
    400024c2:	0ff00793          	li	a5,255
    400024c6:	c4bc                	sw	a5,72(s1)
		r = REG32(spi, SPI_REG_RXFIFO);
    400024c8:	640027b7          	lui	a5,0x64002
    400024cc:	47f8                	lw	a4,76(a5)
	} while (r < 0);
    400024ce:	fe074fe3          	bltz	a4,400024cc <main+0x3d2>
	REG32(spi, SPI_REG_CSMODE) = SPI_CSMODE_AUTO;
    400024d2:	0007ac23          	sw	zero,24(a5) # 64002018 <dtb+0x23fff8b0>
		return 1;
    400024d6:	b3bd                	j	40002244 <main+0x14a>

00000000400024d8 <kputs>:
#include "kprintf.h"

static inline void _kputs(const char *s)
{
	char c;
	for (; (c = *s) != '\0'; s++)
    400024d8:	00054683          	lbu	a3,0(a0)
    400024dc:	ce81                	beqz	a3,400024f4 <kputs+0x1c>
{
	volatile uint32_t *tx = &REG32(uart, UART_REG_TXFIFO);
#ifdef __riscv_atomic
	int32_t r;
	do {
		__asm__ __volatile__ (
    400024de:	64000737          	lui	a4,0x64000
    400024e2:	40d727af          	amoor.w	a5,a3,(a4)
    400024e6:	2781                	sext.w	a5,a5
			"amoor.w %0, %2, %1\n"
			: "=r" (r), "+A" (*tx)
			: "r" (c));
	} while (r < 0);
    400024e8:	fe07cde3          	bltz	a5,400024e2 <kputs+0xa>
    400024ec:	00154683          	lbu	a3,1(a0)
    400024f0:	0505                	addi	a0,a0,1
    400024f2:	fae5                	bnez	a3,400024e2 <kputs+0xa>
		__asm__ __volatile__ (
    400024f4:	64000737          	lui	a4,0x64000
    400024f8:	46b5                	li	a3,13
    400024fa:	40d727af          	amoor.w	a5,a3,(a4)
    400024fe:	2781                	sext.w	a5,a5
	} while (r < 0);
    40002500:	fe07cde3          	bltz	a5,400024fa <kputs+0x22>
		__asm__ __volatile__ (
    40002504:	64000737          	lui	a4,0x64000
    40002508:	46a9                	li	a3,10
    4000250a:	40d727af          	amoor.w	a5,a3,(a4)
    4000250e:	2781                	sext.w	a5,a5
	} while (r < 0);
    40002510:	fe07cde3          	bltz	a5,4000250a <kputs+0x32>
void kputs(const char *s)
{
	_kputs(s);
	kputc('\r');
	kputc('\n');
}
    40002514:	8082                	ret

0000000040002516 <kprintf>:

void kprintf(const char *fmt, ...)
{
    40002516:	715d                	addi	sp,sp,-80

	va_start(vl, fmt);
	is_format = false;
	is_long = false;
	is_char = false;
	while ((c = *fmt++) != '\0') {
    40002518:	00054303          	lbu	t1,0(a0)
{
    4000251c:	fc3e                	sd	a5,56(sp)
	va_start(vl, fmt);
    4000251e:	083c                	addi	a5,sp,24
{
    40002520:	ec2e                	sd	a1,24(sp)
    40002522:	f032                	sd	a2,32(sp)
    40002524:	f436                	sd	a3,40(sp)
    40002526:	f83a                	sd	a4,48(sp)
    40002528:	e0c2                	sd	a6,64(sp)
    4000252a:	e4c6                	sd	a7,72(sp)
	va_start(vl, fmt);
    4000252c:	e43e                	sd	a5,8(sp)
	while ((c = *fmt++) != '\0') {
    4000252e:	06030163          	beqz	t1,40002590 <kprintf+0x7a>
    40002532:	00150593          	addi	a1,a0,1
    40002536:	4e81                	li	t4,0
    40002538:	4681                	li	a3,0
    4000253a:	4701                	li	a4,0
				break;
			}
			is_format = false;
			is_long = false;
			is_char = false;
		} else if (c == '%') {
    4000253c:	02500e13          	li	t3,37
		__asm__ __volatile__ (
    40002540:	64000637          	lui	a2,0x64000
			switch (c) {
    40002544:	48d5                	li	a7,21
    40002546:	00000817          	auipc	a6,0x0
    4000254a:	1ca80813          	addi	a6,a6,458 # 40002710 <kprintf+0x1fa>
		if (is_format) {
    4000254e:	c755                	beqz	a4,400025fa <kprintf+0xe4>
			switch (c) {
    40002550:	f9d3031b          	addiw	t1,t1,-99
    40002554:	0ff37313          	zext.b	t1,t1
    40002558:	0268e463          	bltu	a7,t1,40002580 <kprintf+0x6a>
    4000255c:	030a                	slli	t1,t1,0x2
    4000255e:	9342                	add	t1,t1,a6
    40002560:	00032783          	lw	a5,0(t1)
    40002564:	97c2                	add	a5,a5,a6
    40002566:	8782                	jr	a5
				kputc(va_arg(vl, int));
    40002568:	67a2                	ld	a5,8(sp)
    4000256a:	64000737          	lui	a4,0x64000
    4000256e:	0007c683          	lbu	a3,0(a5)
    40002572:	07a1                	addi	a5,a5,8
    40002574:	e43e                	sd	a5,8(sp)
    40002576:	40d727af          	amoor.w	a5,a3,(a4)
    4000257a:	2781                	sext.w	a5,a5
	} while (r < 0);
    4000257c:	fe07cde3          	bltz	a5,40002576 <kprintf+0x60>
			is_char = false;
    40002580:	4e81                	li	t4,0
			is_long = false;
    40002582:	4681                	li	a3,0
			is_format = false;
    40002584:	4701                	li	a4,0
	while ((c = *fmt++) != '\0') {
    40002586:	0005c303          	lbu	t1,0(a1)
    4000258a:	0585                	addi	a1,a1,1
    4000258c:	fc0311e3          	bnez	t1,4000254e <kprintf+0x38>
		} else {
			kputc(c);
		}
	}
	va_end(vl);
    40002590:	6161                	addi	sp,sp,80
    40002592:	8082                	ret
					n = va_arg(vl, unsigned long);
    40002594:	67a2                	ld	a5,8(sp)
    40002596:	00878713          	addi	a4,a5,8
				if (is_long) {
    4000259a:	cebd                	beqz	a3,40002618 <kprintf+0x102>
					n = va_arg(vl, unsigned long);
    4000259c:	0007bf83          	ld	t6,0(a5)
    400025a0:	e43a                	sd	a4,8(sp)
					i = (sizeof(unsigned long) << 3) - 4;
    400025a2:	03c00513          	li	a0,60
					kputc(d < 10 ? '0' + d : 'a' + d - 10);
    400025a6:	4f25                	li	t5,9
		__asm__ __volatile__ (
    400025a8:	64000737          	lui	a4,0x64000
				for (; i >= 0; i -= 4) {
    400025ac:	5ef1                	li	t4,-4
					d = (n >> i) & 0xF;
    400025ae:	00afd7b3          	srl	a5,t6,a0
					kputc(d < 10 ? '0' + d : 'a' + d - 10);
    400025b2:	00f7f313          	andi	t1,a5,15
    400025b6:	05730693          	addi	a3,t1,87
    400025ba:	006f6463          	bltu	t5,t1,400025c2 <kprintf+0xac>
    400025be:	03030693          	addi	a3,t1,48
    400025c2:	40d727af          	amoor.w	a5,a3,(a4)
    400025c6:	2781                	sext.w	a5,a5
	} while (r < 0);
    400025c8:	fe07cde3          	bltz	a5,400025c2 <kprintf+0xac>
				for (; i >= 0; i -= 4) {
    400025cc:	1571                	addi	a0,a0,-4
    400025ce:	ffd510e3          	bne	a0,t4,400025ae <kprintf+0x98>
    400025d2:	b77d                	j	40002580 <kprintf+0x6a>
				_kputs(va_arg(vl, const char *));
    400025d4:	67a2                	ld	a5,8(sp)
    400025d6:	6388                	ld	a0,0(a5)
    400025d8:	07a1                	addi	a5,a5,8
    400025da:	e43e                	sd	a5,8(sp)
	for (; (c = *s) != '\0'; s++)
    400025dc:	00054683          	lbu	a3,0(a0)
    400025e0:	d2c5                	beqz	a3,40002580 <kprintf+0x6a>
		__asm__ __volatile__ (
    400025e2:	64000737          	lui	a4,0x64000
    400025e6:	40d727af          	amoor.w	a5,a3,(a4)
    400025ea:	2781                	sext.w	a5,a5
	} while (r < 0);
    400025ec:	fe07cde3          	bltz	a5,400025e6 <kprintf+0xd0>
    400025f0:	00154683          	lbu	a3,1(a0)
    400025f4:	0505                	addi	a0,a0,1
    400025f6:	fae5                	bnez	a3,400025e6 <kprintf+0xd0>
    400025f8:	b761                	j	40002580 <kprintf+0x6a>
		} else if (c == '%') {
    400025fa:	01c31463          	bne	t1,t3,40002602 <kprintf+0xec>
			is_format = true;
    400025fe:	4705                	li	a4,1
    40002600:	b759                	j	40002586 <kprintf+0x70>
		__asm__ __volatile__ (
    40002602:	406627af          	amoor.w	a5,t1,(a2)
    40002606:	2781                	sext.w	a5,a5
	} while (r < 0);
    40002608:	f607dfe3          	bgez	a5,40002586 <kprintf+0x70>
		__asm__ __volatile__ (
    4000260c:	406627af          	amoor.w	a5,t1,(a2)
    40002610:	2781                	sext.w	a5,a5
	} while (r < 0);
    40002612:	fe07c8e3          	bltz	a5,40002602 <kprintf+0xec>
    40002616:	bf85                	j	40002586 <kprintf+0x70>
					n = va_arg(vl, unsigned int);
    40002618:	e43a                	sd	a4,8(sp)
    4000261a:	0007ef83          	lwu	t6,0(a5)
					i = is_char ? 4 : (sizeof(unsigned int) << 3) - 4;
    4000261e:	4571                	li	a0,28
    40002620:	f80e83e3          	beqz	t4,400025a6 <kprintf+0x90>
    40002624:	4511                	li	a0,4
    40002626:	b741                	j	400025a6 <kprintf+0x90>
			switch (c) {
    40002628:	8eba                	mv	t4,a4
    4000262a:	bfb1                	j	40002586 <kprintf+0x70>
				is_long = true;
    4000262c:	86ba                	mv	a3,a4
    4000262e:	bfa1                	j	40002586 <kprintf+0x70>
	...
